(ipsychopy.data
TrialHandler
p1
(dp2
S'origin'
p3
V<PsychoPy2experiment version="1.62.00" encoding="utf-8">\u000a  <Settings>\u000a    <Param name="Monitor" val="testMonitor" valType="str" updates="None"/>\u000a    <Param name="color" val="$[0, 0, 0]" valType="str" updates="None"/>\u000a    <Param name="Window size (pixels)" val="[1680, 1050]" valType="code" updates="None"/>\u000a    <Param name="Full-screen window" val="True" valType="bool" updates="None"/>\u000a    <Param name="colorSpace" val="rgb" valType="str" updates="None"/>\u000a    <Param name="Save log file" val="False" valType="bool" updates="None"/>\u000a    <Param name="Experiment info" val="{'participant':'', 'session':02}" valType="code" updates="None"/>\u000a    <Param name="Show info dlg" val="True" valType="bool" updates="None"/>\u000a    <Param name="logging level" val="warning" valType="code" updates="None"/>\u000a    <Param name="Units" val="use prefs" valType="str" updates="None"/>\u000a    <Param name="Screen" val="1" valType="num" updates="None"/>\u000a  </Settings>\u000a  <Routines>\u000a    <Routine name="trial">\u000a      <TextComponent name="fixation">\u000a        <Param name="name" val="fixation" valType="code" updates="constant"/>\u000a        <Param name="color" val="white" valType="str" updates="constant"/>\u000a        <Param name="text" val="+" valType="str" updates="constant"/>\u000a        <Param name="colorSpace" val="rgb" valType="str" updates="constant"/>\u000a        <Param name="pos" val="[0, 0]" valType="code" updates="constant"/>\u000a        <Param name="duration" val="1.0" valType="code" updates="constant"/>\u000a        <Param name="letterHeight" val="0.05" valType="code" updates="constant"/>\u000a        <Param name="startTime" val="0.0" valType="code" updates="constant"/>\u000a        <Param name="ori" val="0" valType="code" updates="constant"/>\u000a        <Param name="units" val="window units" valType="str" updates="None"/>\u000a        <Param name="font" val="Arial" valType="str" updates="constant"/>\u000a      </TextComponent>\u000a      <TextComponent name="presentSet">\u000a        <Param name="name" val="presentSet" valType="code" updates="constant"/>\u000a        <Param name="color" val="white" valType="str" updates="constant"/>\u000a        <Param name="text" val="$numberSet" valType="str" updates="set every repeat"/>\u000a        <Param name="colorSpace" val="rgb" valType="str" updates="constant"/>\u000a        <Param name="pos" val="[0, 0]" valType="code" updates="constant"/>\u000a        <Param name="duration" val="1.5" valType="code" updates="constant"/>\u000a        <Param name="letterHeight" val="0.1" valType="code" updates="constant"/>\u000a        <Param name="startTime" val="1.2" valType="code" updates="constant"/>\u000a        <Param name="ori" val="0" valType="code" updates="constant"/>\u000a        <Param name="units" val="window units" valType="str" updates="None"/>\u000a        <Param name="font" val="Arial" valType="str" updates="constant"/>\u000a      </TextComponent>\u000a      <TextComponent name="presentTarget">\u000a        <Param name="name" val="presentTarget" valType="code" updates="constant"/>\u000a        <Param name="color" val="white" valType="str" updates="constant"/>\u000a        <Param name="text" val="$target" valType="str" updates="set every repeat"/>\u000a        <Param name="colorSpace" val="rgb" valType="str" updates="constant"/>\u000a        <Param name="pos" val="[0, 0]" valType="code" updates="constant"/>\u000a        <Param name="duration" val="2" valType="code" updates="constant"/>\u000a        <Param name="letterHeight" val="0.1" valType="code" updates="constant"/>\u000a        <Param name="startTime" val="4.7" valType="code" updates="constant"/>\u000a        <Param name="ori" val="0" valType="code" updates="constant"/>\u000a        <Param name="units" val="window units" valType="str" updates="None"/>\u000a        <Param name="font" val="Arial" valType="str" updates="constant"/>\u000a      </TextComponent>\u000a      <KeyboardComponent name="resp">\u000a        <Param name="storeCorrect" val="True" valType="bool" updates="constant"/>\u000a        <Param name="name" val="resp" valType="code" updates="None"/>\u000a        <Param name="forceEndTrial" val="True" valType="bool" updates="constant"/>\u000a        <Param name="correctAns" val="$corrAns" valType="str" updates="constant"/>\u000a        <Param name="storeResponseTime" val="True" valType="bool" updates="constant"/>\u000a        <Param name="startTime" val="4.7" valType="code" updates="constant"/>\u000a        <Param name="allowedKeys" val="['left','right']" valType="str" updates="constant"/>\u000a        <Param name="duration" val="" valType="code" updates="constant"/>\u000a        <Param name="store" val="last key" valType="str" updates="constant"/>\u000a      </KeyboardComponent>\u000a    </Routine>\u000a    <Routine name="feedback">\u000a      <CodeComponent name="message">\u000a        <Param name="Begin Experiment" val="#msg variable just needs some value at start&#10;msg=''" valType="code" updates="constant"/>\u000a        <Param name="name" val="message" valType="code" updates="None"/>\u000a        <Param name="Each Frame" val="" valType="code" updates="constant"/>\u000a        <Param name="Begin Routine" val="if resp.corr:#stored on last run routine&#10;  msg=&quot;Correct! RT=%.3f&quot; %(resp.rt)&#10;else:&#10;  msg=&quot;Oops! That was wrong&quot;" valType="code" updates="constant"/>\u000a        <Param name="End Routine" val="" valType="code" updates="constant"/>\u000a        <Param name="End Experiment" val="" valType="code" updates="constant"/>\u000a      </CodeComponent>\u000a      <TextComponent name="feedback">\u000a        <Param name="name" val="feedback" valType="code" updates="constant"/>\u000a        <Param name="color" val="$[1,1,1]" valType="str" updates="constant"/>\u000a        <Param name="text" val="$msg" valType="str" updates="set every repeat"/>\u000a        <Param name="colorSpace" val="rgb" valType="str" updates="constant"/>\u000a        <Param name="pos" val="[0, 0]" valType="code" updates="constant"/>\u000a        <Param name="duration" val="1.0" valType="code" updates="constant"/>\u000a        <Param name="letterHeight" val="0.1" valType="code" updates="constant"/>\u000a        <Param name="startTime" val="0.0" valType="code" updates="constant"/>\u000a        <Param name="ori" val="0" valType="code" updates="constant"/>\u000a        <Param name="units" val="window units" valType="str" updates="None"/>\u000a        <Param name="font" val="Arial" valType="str" updates="constant"/>\u000a      </TextComponent>\u000a    </Routine>\u000a    <Routine name="thanks">\u000a      <TextComponent name="thanksMsg">\u000a        <Param name="name" val="thanksMsg" valType="code" updates="constant"/>\u000a        <Param name="color" val="white" valType="str" updates="constant"/>\u000a        <Param name="text" val="Thanks for taking part!" valType="str" updates="constant"/>\u000a        <Param name="colorSpace" val="rgb" valType="str" updates="constant"/>\u000a        <Param name="pos" val="[0, 0]" valType="code" updates="constant"/>\u000a        <Param name="duration" val="4.0" valType="code" updates="constant"/>\u000a        <Param name="letterHeight" val="0.1" valType="code" updates="constant"/>\u000a        <Param name="startTime" val="0.0" valType="code" updates="constant"/>\u000a        <Param name="ori" val="0" valType="code" updates="constant"/>\u000a        <Param name="units" val="window units" valType="str" updates="None"/>\u000a        <Param name="font" val="Arial" valType="str" updates="constant"/>\u000a      </TextComponent>\u000a    </Routine>\u000a    <Routine name="mainInstruct">\u000a      <TextComponent name="instr2">\u000a        <Param name="name" val="instr2" valType="code" updates="constant"/>\u000a        <Param name="color" val="$[1, 1, 1]" valType="str" updates="constant"/>\u000a        <Param name="text" val="OK, ready to start the main experiment?&#10;&#10;Remember:&#10; - LEFT CURSOR for NOT in the sequence&#10; - RIGHT CURSOR for IN the sequence&#10;Try to respond as quickly and as accurately as possible.&#10;&#10;When you are ready to proceed press any key." valType="str" updates="constant"/>\u000a        <Param name="colorSpace" val="rgb" valType="str" updates="constant"/>\u000a        <Param name="pos" val="[0, 0]" valType="code" updates="constant"/>\u000a        <Param name="duration" val="" valType="code" updates="constant"/>\u000a        <Param name="letterHeight" val="0.05" valType="code" updates="constant"/>\u000a        <Param name="startTime" val="0.0" valType="code" updates="constant"/>\u000a        <Param name="ori" val="0" valType="code" updates="constant"/>\u000a        <Param name="units" val="window units" valType="str" updates="None"/>\u000a        <Param name="font" val="Arial" valType="str" updates="constant"/>\u000a      </TextComponent>\u000a      <KeyboardComponent name="OK2">\u000a        <Param name="storeCorrect" val="False" valType="bool" updates="constant"/>\u000a        <Param name="name" val="OK2" valType="code" updates="None"/>\u000a        <Param name="forceEndTrial" val="True" valType="bool" updates="constant"/>\u000a        <Param name="correctAns" val="" valType="str" updates="constant"/>\u000a        <Param name="storeResponseTime" val="False" valType="bool" updates="constant"/>\u000a        <Param name="startTime" val="0.0" valType="code" updates="constant"/>\u000a        <Param name="allowedKeys" val="" valType="str" updates="constant"/>\u000a        <Param name="duration" val="" valType="code" updates="constant"/>\u000a        <Param name="store" val="last key" valType="str" updates="constant"/>\u000a      </KeyboardComponent>\u000a    </Routine>\u000a    <Routine name="practInstruct">\u000a      <TextComponent name="instr1">\u000a        <Param name="name" val="instr1" valType="code" updates="constant"/>\u000a        <Param name="color" val="$[1,1,1]" valType="str" updates="constant"/>\u000a        <Param name="text" val="In this experiment you will be presented with a sequence of between 1 and 6 randomly ordered numbers.&#10;&#10;Following a short delay you will then be presented with a single number and you will have to decide whether this new number was a member of the sequence.&#10;&#10;Respond with the keys;&#10; - LEFT CURSOR if the number was NOT in the sequence&#10; - RIGHT CURSOR if the number WAS in the sequence&#10;&#10;There will be a number of practice trials in which you will be given feedback.  Try to respond as quickly and as accurately as possible.&#10;&#10;When you are ready to proceed press any key." valType="str" updates="constant"/>\u000a        <Param name="colorSpace" val="rgb" valType="str" updates="constant"/>\u000a        <Param name="pos" val="[0, 0]" valType="code" updates="constant"/>\u000a        <Param name="duration" val="" valType="code" updates="constant"/>\u000a        <Param name="letterHeight" val="0.05" valType="code" updates="constant"/>\u000a        <Param name="startTime" val="0.0" valType="code" updates="constant"/>\u000a        <Param name="ori" val="0" valType="code" updates="constant"/>\u000a        <Param name="units" val="window units" valType="str" updates="None"/>\u000a        <Param name="font" val="Arial" valType="str" updates="constant"/>\u000a      </TextComponent>\u000a      <KeyboardComponent name="OK1">\u000a        <Param name="storeCorrect" val="False" valType="bool" updates="constant"/>\u000a        <Param name="name" val="OK1" valType="code" updates="None"/>\u000a        <Param name="forceEndTrial" val="True" valType="bool" updates="constant"/>\u000a        <Param name="correctAns" val="" valType="str" updates="constant"/>\u000a        <Param name="storeResponseTime" val="False" valType="bool" updates="constant"/>\u000a        <Param name="startTime" val="0.0" valType="code" updates="constant"/>\u000a        <Param name="allowedKeys" val="" valType="str" updates="constant"/>\u000a        <Param name="duration" val="" valType="code" updates="constant"/>\u000a        <Param name="store" val="last key" valType="str" updates="constant"/>\u000a      </KeyboardComponent>\u000a    </Routine>\u000a  </Routines>\u000a  <Flow>\u000a    <Routine name="practInstruct"/>\u000a    <LoopInitiator loopType="TrialHandler" name="pracTrials">\u000a      <Param name="endPoints" val="[0, 1]" valType="num" updates="None"/>\u000a      <Param name="name" val="pracTrials" valType="code" updates="None"/>\u000a      <Param name="loopType" val="random" valType="str" updates="None"/>\u000a      <Param name="nReps" val="1" valType="num" updates="None"/>\u000a      <Param name="trialList" val="[{u'numberSet': 6, u'target': 6, u'corrAns': 9, u'posInSet': 1, u'setSize': 1, u'present': u'y'}, {u'numberSet': 5, u'target': 3, u'corrAns': 1, u'posInSet': u'--', u'setSize': 1, u'present': u'n'}, {u'numberSet': u'4 8', u'target': 4, u'corrAns': 9, u'posInSet': 1, u'setSize': 2, u'present': u'y'}, {u'numberSet': u'2 1', u'target': 5, u'corrAns': 1, u'posInSet': u'--', u'setSize': 2, u'present': u'n'}, {u'numberSet': u'2 9 4', u'target': 4, u'corrAns': 9, u'posInSet': 3, u'setSize': 3, u'present': u'y'}, {u'numberSet': u'4 1 5', u'target': 2, u'corrAns': 1, u'posInSet': u'--', u'setSize': 3, u'present': u'n'}, {u'numberSet': u'1 5 2 9', u'target': 5, u'corrAns': 9, u'posInSet': 2, u'setSize': 4, u'present': u'y'}, {u'numberSet': u'3 1 9 4', u'target': 6, u'corrAns': 1, u'posInSet': u'--', u'setSize': 4, u'present': u'n'}, {u'numberSet': u'1 7 9 8 5', u'target': 8, u'corrAns': 9, u'posInSet': 4, u'setSize': 5, u'present': u'y'}, {u'numberSet': u'9 6 7 4 5', u'target': 3, u'corrAns': 1, u'posInSet': u'--', u'setSize': 5, u'present': u'n'}, {u'numberSet': u'4 3 1 7 9 8', u'target': 4, u'corrAns': 9, u'posInSet': 1, u'setSize': 6, u'present': u'y'}, {u'numberSet': u'5 7 8 4 1 2', u'target': 6, u'corrAns': 1, u'posInSet': u'--', u'setSize': 6, u'present': u'n'}]" valType="str" updates="None"/>\u000a      <Param name="trialListFile" val="pracTrials.xlsx" valType="str" updates="None"/>\u000a    </LoopInitiator>\u000a    <Routine name="trial"/>\u000a    <Routine name="feedback"/>\u000a    <LoopTerminator name="pracTrials"/>\u000a    <Routine name="mainInstruct"/>\u000a    <LoopInitiator loopType="TrialHandler" name="trials">\u000a      <Param name="endPoints" val="[0, 1]" valType="num" updates="None"/>\u000a      <Param name="name" val="trials" valType="code" updates="None"/>\u000a      <Param name="loopType" val="random" valType="str" updates="None"/>\u000a      <Param name="nReps" val="1" valType="num" updates="None"/>\u000a      <Param name="trialList" val="[{u'numberSet': 5, u'target': 8, u'corrAns': u'left', u'posInSet': u'--', u'setSize': 1, u'present': u'n'}, {u'numberSet': 9, u'target': 6, u'corrAns': u'left', u'posInSet': u'--', u'setSize': 1, u'present': u'n'}, {u'numberSet': 1, u'target': 7, u'corrAns': u'left', u'posInSet': u'--', u'setSize': 1, u'present': u'n'}, {u'numberSet': 4, u'target': 4, u'corrAns': u'right', u'posInSet': 1, u'setSize': 1, u'present': u'y'}, {u'numberSet': 7, u'target': 7, u'corrAns': u'right', u'posInSet': 1, u'setSize': 1, u'present': u'y'}, {u'numberSet': 8, u'target': 8, u'corrAns': u'right', u'posInSet': 1, u'setSize': 1, u'present': u'y'}, {u'numberSet': u'8 9', u'target': 5, u'corrAns': u'left', u'posInSet': u'--', u'setSize': 2, u'present': u'n'}, {u'numberSet': u'6 8', u'target': 9, u'corrAns': u'left', u'posInSet': u'--', u'setSize': 2, u'present': u'n'}, {u'numberSet': u'7 9', u'target': 1, u'corrAns': u'left', u'posInSet': u'--', u'setSize': 2, u'present': u'n'}, {u'numberSet': u'6 2', u'target': 6, u'corrAns': u'right', u'posInSet': 1, u'setSize': 2, u'present': u'y'}, {u'numberSet': u'2 3', u'target': 2, u'corrAns': u'right', u'posInSet': 1, u'setSize': 2, u'present': u'y'}, {u'numberSet': u'3 4', u'target': 3, u'corrAns': u'right', u'posInSet': 1, u'setSize': 2, u'present': u'y'}, {u'numberSet': u'7 1', u'target': 8, u'corrAns': u'left', u'posInSet': u'--', u'setSize': 2, u'present': u'n'}, {u'numberSet': u'4 1', u'target': 6, u'corrAns': u'left', u'posInSet': u'--', u'setSize': 2, u'present': u'n'}, {u'numberSet': u'5 2', u'target': 7, u'corrAns': u'left', u'posInSet': u'--', u'setSize': 2, u'present': u'n'}, {u'numberSet': u'8 3', u'target': 3, u'corrAns': u'right', u'posInSet': 2, u'setSize': 2, u'present': u'y'}, {u'numberSet': u'6 5', u'target': 5, u'corrAns': u'right', u'posInSet': 2, u'setSize': 2, u'present': u'y'}, {u'numberSet': u'7 6', u'target': 6, u'corrAns': u'right', u'posInSet': 2, u'setSize': 2, u'present': u'y'}, {u'numberSet': u'6 9 5', u'target': 8, u'corrAns': u'left', u'posInSet': u'--', u'setSize': 3, u'present': u'n'}, {u'numberSet': u'2 8 9', u'target': 6, u'corrAns': u'left', u'posInSet': u'--', u'setSize': 3, u'present': u'n'}, {u'numberSet': u'3 9 1', u'target': 7, u'corrAns': u'left', u'posInSet': u'--', u'setSize': 3, u'present': u'n'}, {u'numberSet': u'9 4 2', u'target': 9, u'corrAns': u'right', u'posInSet': 1, u'setSize': 3, u'present': u'y'}, {u'numberSet': u'8 7 3', u'target': 8, u'corrAns': u'right', u'posInSet': 1, u'setSize': 3, u'present': u'y'}, {u'numberSet': u'9 8 4', u'target': 9, u'corrAns': u'right', u'posInSet': 1, u'setSize': 3, u'present': u'y'}, {u'numberSet': u'3 4 2', u'target': 5, u'corrAns': u'left', u'posInSet': u'--', u'setSize': 3, u'present': u'n'}, {u'numberSet': u'5 7 3', u'target': 9, u'corrAns': u'left', u'posInSet': u'--', u'setSize': 3, u'present': u'n'}, {u'numberSet': u'6 8 4', u'target': 1, u'corrAns': u'left', u'posInSet': u'--', u'setSize': 3, u'present': u'n'}, {u'numberSet': u'7 1 3', u'target': 1, u'corrAns': u'right', u'posInSet': 2, u'setSize': 3, u'present': u'y'}, {u'numberSet': u'4 1 5', u'target': 1, u'corrAns': u'right', u'posInSet': 2, u'setSize': 3, u'present': u'y'}, {u'numberSet': u'5 2 6', u'target': 2, u'corrAns': u'right', u'posInSet': 2, u'setSize': 3, u'present': u'y'}, {u'numberSet': u'1 8 7', u'target': 4, u'corrAns': u'left', u'posInSet': u'--', u'setSize': 3, u'present': u'n'}, {u'numberSet': u'1 6 4', u'target': 7, u'corrAns': u'left', u'posInSet': u'--', u'setSize': 3, u'present': u'n'}, {u'numberSet': u'2 7 5', u'target': 8, u'corrAns': u'left', u'posInSet': u'--', u'setSize': 3, u'present': u'n'}, {u'numberSet': u'8 1 6', u'target': 6, u'corrAns': u'right', u'posInSet': 3, u'setSize': 3, u'present': u'y'}, {u'numberSet': u'6 1 2', u'target': 2, u'corrAns': u'right', u'posInSet': 3, u'setSize': 3, u'present': u'y'}, {u'numberSet': u'7 2 3', u'target': 3, u'corrAns': u'right', u'posInSet': 3, u'setSize': 3, u'present': u'y'}, {u'numberSet': u'4 2 6 9', u'target': 7, u'corrAns': u'left', u'posInSet': u'--', u'setSize': 4, u'present': u'n'}, {u'numberSet': u'7 3 2 8', u'target': 4, u'corrAns': u'left', u'posInSet': u'--', u'setSize': 4, u'present': u'n'}, {u'numberSet': u'8 4 3 9', u'target': 5, u'corrAns': u'left', u'posInSet': u'--', u'setSize': 4, u'present': u'n'}, {u'numberSet': u'2 3 7 4', u'target': 2, u'corrAns': u'right', u'posInSet': 1, u'setSize': 4, u'present': u'y'}, {u'numberSet': u'3 5 4 7', u'target': 3, u'corrAns': u'right', u'posInSet': 1, u'setSize': 4, u'present': u'y'}, {u'numberSet': u'4 6 5 8', u'target': 4, u'corrAns': u'right', u'posInSet': 1, u'setSize': 4, u'present': u'y'}, {u'numberSet': u'8 4 3 5', u'target': 6, u'corrAns': u'left', u'posInSet': u'--', u'setSize': 4, u'present': u'n'}, {u'numberSet': u'6 7 5 9', u'target': 2, u'corrAns': u'left', u'posInSet': u'--', u'setSize': 4, u'present': u'n'}, {u'numberSet': u'7 8 6 1', u'target': 3, u'corrAns': u'left', u'posInSet': u'--', u'setSize': 4, u'present': u'n'}, {u'numberSet': u'9 5 8 1', u'target': 5, u'corrAns': u'right', u'posInSet': 2, u'setSize': 4, u'present': u'y'}, {u'numberSet': u'8 9 6 1', u'target': 9, u'corrAns': u'right', u'posInSet': 2, u'setSize': 4, u'present': u'y'}, {u'numberSet': u'9 1 7 2', u'target': 1, u'corrAns': u'right', u'posInSet': 2, u'setSize': 4, u'present': u'y'}, {u'numberSet': u'1 7 5 2', u'target': 3, u'corrAns': u'left', u'posInSet': u'--', u'setSize': 4, u'present': u'n'}, {u'numberSet': u'1 4 9 3', u'target': 5, u'corrAns': u'left', u'posInSet': u'--', u'setSize': 4, u'present': u'n'}, {u'numberSet': u'2 5 1 4', u'target': 6, u'corrAns': u'left', u'posInSet': u'--', u'setSize': 4, u'present': u'n'}, {u'numberSet': u'6 7 8 5', u'target': 8, u'corrAns': u'right', u'posInSet': 3, u'setSize': 4, u'present': u'y'}, {u'numberSet': u'2 4 6 9', u'target': 6, u'corrAns': u'right', u'posInSet': 3, u'setSize': 4, u'present': u'y'}, {u'numberSet': u'3 5 7 1', u'target': 7, u'corrAns': u'right', u'posInSet': 3, u'setSize': 4, u'present': u'y'}, {u'numberSet': u'7 9 1 6', u'target': 4, u'corrAns': u'left', u'posInSet': u'--', u'setSize': 4, u'present': u'n'}, {u'numberSet': u'4 8 1 2', u'target': 7, u'corrAns': u'left', u'posInSet': u'--', u'setSize': 4, u'present': u'n'}, {u'numberSet': u'5 9 2 3', u'target': 8, u'corrAns': u'left', u'posInSet': u'--', u'setSize': 4, u'present': u'n'}, {u'numberSet': u'6 9 3 1', u'target': 1, u'corrAns': u'right', u'posInSet': 4, u'setSize': 4, u'present': u'y'}, {u'numberSet': u'2 8 5 1', u'target': 1, u'corrAns': u'right', u'posInSet': 4, u'setSize': 4, u'present': u'y'}, {u'numberSet': u'3 9 6 2', u'target': 2, u'corrAns': u'right', u'posInSet': 4, u'setSize': 4, u'present': u'y'}, {u'numberSet': u'1 4 3 6 5', u'target': 8, u'corrAns': u'left', u'posInSet': u'--', u'setSize': 5, u'present': u'n'}, {u'numberSet': u'1 7 5 2 9', u'target': 3, u'corrAns': u'left', u'posInSet': u'--', u'setSize': 5, u'present': u'n'}, {u'numberSet': u'2 8 6 3 1', u'target': 7, u'corrAns': u'left', u'posInSet': u'--', u'setSize': 5, u'present': u'n'}, {u'numberSet': u'9 5 3 8 4', u'target': 9, u'corrAns': u'right', u'posInSet': 1, u'setSize': 5, u'present': u'y'}, {u'numberSet': u'8 9 5 6 7', u'target': 8, u'corrAns': u'right', u'posInSet': 1, u'setSize': 5, u'present': u'y'}, {u'numberSet': u'9 1 6 7 8', u'target': 9, u'corrAns': u'right', u'posInSet': 1, u'setSize': 5, u'present': u'y'}, {u'numberSet': u'9 8 2 7 4', u'target': 5, u'corrAns': u'left', u'posInSet': u'--', u'setSize': 5, u'present': u'n'}, {u'numberSet': u'8 6 3 4 7', u'target': 1, u'corrAns': u'left', u'posInSet': u'--', u'setSize': 5, u'present': u'n'}, {u'numberSet': u'9 7 4 5 8', u'target': 6, u'corrAns': u'left', u'posInSet': u'--', u'setSize': 5, u'present': u'n'}, {u'numberSet': u'2 6 1 7 4', u'target': 6, u'corrAns': u'right', u'posInSet': 2, u'setSize': 5, u'present': u'y'}, {u'numberSet': u'3 2 1 4 7', u'target': 2, u'corrAns': u'right', u'posInSet': 2, u'setSize': 5, u'present': u'y'}, {u'numberSet': u'4 3 2 5 8', u'target': 3, u'corrAns': u'right', u'posInSet': 2, u'setSize': 5, u'present': u'y'}, {u'numberSet': u'1 3 2 6 9', u'target': 5, u'corrAns': u'left', u'posInSet': u'--', u'setSize': 5, u'present': u'n'}, {u'numberSet': u'1 5 3 2 8', u'target': 4, u'corrAns': u'left', u'posInSet': u'--', u'setSize': 5, u'present': u'n'}, {u'numberSet': u'2 6 4 3 9', u'target': 1, u'corrAns': u'left', u'posInSet': u'--', u'setSize': 5, u'present': u'n'}, {u'numberSet': u'2 5 4 8 7', u'target': 4, u'corrAns': u'right', u'posInSet': 3, u'setSize': 5, u'present': u'y'}, {u'numberSet': u'3 9 7 6 4', u'target': 7, u'corrAns': u'right', u'posInSet': 3, u'setSize': 5, u'present': u'y'}, {u'numberSet': u'4 1 8 7 5', u'target': 8, u'corrAns': u'right', u'posInSet': 3, u'setSize': 5, u'present': u'y'}, {u'numberSet': u'8 5 7 3 6', u'target': 9, u'corrAns': u'left', u'posInSet': u'--', u'setSize': 5, u'present': u'n'}, {u'numberSet': u'6 9 4 5 2', u'target': 1, u'corrAns': u'left', u'posInSet': u'--', u'setSize': 5, u'present': u'n'}, {u'numberSet': u'7 1 5 6 3', u'target': 8, u'corrAns': u'left', u'posInSet': u'--', u'setSize': 5, u'present': u'n'}, {u'numberSet': u'9 3 1 2 5', u'target': 2, u'corrAns': u'right', u'posInSet': 4, u'setSize': 5, u'present': u'y'}, {u'numberSet': u'8 5 1 3 9', u'target': 3, u'corrAns': u'right', u'posInSet': 4, u'setSize': 5, u'present': u'y'}, {u'numberSet': u'9 6 2 4 1', u'target': 4, u'corrAns': u'right', u'posInSet': 4, u'setSize': 5, u'present': u'y'}, {u'numberSet': u'1 4 9 2 5', u'target': 7, u'corrAns': u'left', u'posInSet': u'--', u'setSize': 5, u'present': u'n'}, {u'numberSet': u'1 7 8 3 9', u'target': 2, u'corrAns': u'left', u'posInSet': u'--', u'setSize': 5, u'present': u'n'}, {u'numberSet': u'2 8 9 4 1', u'target': 5, u'corrAns': u'left', u'posInSet': u'--', u'setSize': 5, u'present': u'n'}, {u'numberSet': u'7 8 6 3 1', u'target': 1, u'corrAns': u'right', u'posInSet': 5, u'setSize': 5, u'present': u'y'}, {u'numberSet': u'4 6 2 5 1', u'target': 1, u'corrAns': u'right', u'posInSet': 5, u'setSize': 5, u'present': u'y'}, {u'numberSet': u'5 7 3 6 2', u'target': 2, u'corrAns': u'right', u'posInSet': 5, u'setSize': 5, u'present': u'y'}, {u'numberSet': u'5 3 2 6 9 8', u'target': 4, u'corrAns': u'left', u'posInSet': u'--', u'setSize': 6, u'present': u'n'}, {u'numberSet': u'9 5 3 2 8 6', u'target': 7, u'corrAns': u'left', u'posInSet': u'--', u'setSize': 6, u'present': u'n'}, {u'numberSet': u'1 6 4 3 9 7', u'target': 8, u'corrAns': u'left', u'posInSet': u'--', u'setSize': 6, u'present': u'n'}, {u'numberSet': u'6 7 9 3 1 2', u'target': 6, u'corrAns': u'right', u'posInSet': 1, u'setSize': 6, u'present': u'y'}, {u'numberSet': u'2 4 8 5 1 3', u'target': 2, u'corrAns': u'right', u'posInSet': 1, u'setSize': 6, u'present': u'y'}, {u'numberSet': u'3 5 9 6 2 4', u'target': 3, u'corrAns': u'right', u'posInSet': 1, u'setSize': 6, u'present': u'y'}, {u'numberSet': u'6 2 9 3 8 4', u'target': 1, u'corrAns': u'left', u'posInSet': u'--', u'setSize': 6, u'present': u'n'}, {u'numberSet': u'2 3 8 5 6 7', u'target': 1, u'corrAns': u'left', u'posInSet': u'--', u'setSize': 6, u'present': u'n'}, {u'numberSet': u'3 4 9 6 7 8', u'target': 2, u'corrAns': u'left', u'posInSet': u'--', u'setSize': 6, u'present': u'n'}, {u'numberSet': u'8 5 4 7 3 1', u'target': 5, u'corrAns': u'right', u'posInSet': 2, u'setSize': 6, u'present': u'y'}, {u'numberSet': u'6 9 7 4 5 1', u'target': 9, u'corrAns': u'right', u'posInSet': 2, u'setSize': 6, u'present': u'y'}, {u'numberSet': u'7 1 8 5 6 2', u'target': 1, u'corrAns': u'right', u'posInSet': 2, u'setSize': 6, u'present': u'y'}, {u'numberSet': u'8 2 1 4 5 9', u'target': 7, u'corrAns': u'left', u'posInSet': u'--', u'setSize': 6, u'present': u'n'}, {u'numberSet': u'6 3 1 7 9 8', u'target': 4, u'corrAns': u'left', u'posInSet': u'--', u'setSize': 6, u'present': u'n'}, {u'numberSet': u'7 4 2 8 1 9', u'target': 5, u'corrAns': u'left', u'posInSet': u'--', u'setSize': 6, u'present': u'n'}, {u'numberSet': u'5 2 9 6 1 7', u'target': 9, u'corrAns': u'right', u'posInSet': 3, u'setSize': 6, u'present': u'y'}, {u'numberSet': u'9 3 8 2 1 4', u'target': 8, u'corrAns': u'right', u'posInSet': 3, u'setSize': 6, u'present': u'y'}, {u'numberSet': u'1 4 9 3 2 5', u'target': 9, u'corrAns': u'right', u'posInSet': 3, u'setSize': 6, u'present': u'y'}, {u'numberSet': u'6 9 4 5 3 2', u'target': 8, u'corrAns': u'left', u'posInSet': u'--', u'setSize': 6, u'present': u'n'}, {u'numberSet': u'2 8 7 9 5 3', u'target': 6, u'corrAns': u'left', u'posInSet': u'--', u'setSize': 6, u'present': u'n'}, {u'numberSet': u'3 9 8 1 6 4', u'target': 7, u'corrAns': u'left', u'posInSet': u'--', u'setSize': 6, u'present': u'n'}, {u'numberSet': u'4 9 7 8 5 3', u'target': 8, u'corrAns': u'right', u'posInSet': 4, u'setSize': 6, u'present': u'y'}, {u'numberSet': u'7 8 4 6 9 5', u'target': 6, u'corrAns': u'right', u'posInSet': 4, u'setSize': 6, u'present': u'y'}, {u'numberSet': u'8 9 5 7 1 6', u'target': 7, u'corrAns': u'right', u'posInSet': 4, u'setSize': 6, u'present': u'y'}, {u'numberSet': u'8 5 4 2 9 6', u'target': 3, u'corrAns': u'left', u'posInSet': u'--', u'setSize': 6, u'present': u'n'}, {u'numberSet': u'6 9 7 3 8 2', u'target': 5, u'corrAns': u'left', u'posInSet': u'--', u'setSize': 6, u'present': u'n'}, {u'numberSet': u'7 1 8 4 9 3', u'target': 6, u'corrAns': u'left', u'posInSet': u'--', u'setSize': 6, u'present': u'n'}, {u'numberSet': u'3 4 9 6 2 9', u'target': 2, u'corrAns': u'right', u'posInSet': 5, u'setSize': 6, u'present': u'y'}, {u'numberSet': u'5 7 8 2 3 8', u'target': 3, u'corrAns': u'right', u'posInSet': 5, u'setSize': 6, u'present': u'y'}, {u'numberSet': u'6 8 9 3 4 9', u'target': 4, u'corrAns': u'right', u'posInSet': 5, u'setSize': 6, u'present': u'y'}, {u'numberSet': u'7 6 4 8 1 2', u'target': 9, u'corrAns': u'left', u'posInSet': u'--', u'setSize': 6, u'present': u'n'}, {u'numberSet': u'4 2 7 6 1 3', u'target': 8, u'corrAns': u'left', u'posInSet': u'--', u'setSize': 6, u'present': u'n'}, {u'numberSet': u'5 3 8 7 2 4', u'target': 9, u'corrAns': u'left', u'posInSet': u'--', u'setSize': 6, u'present': u'n'}, {u'numberSet': u'4 7 6 8 2 3', u'target': 3, u'corrAns': u'right', u'posInSet': 6, u'setSize': 6, u'present': u'y'}, {u'numberSet': u'7 4 2 6 3 5', u'target': 5, u'corrAns': u'right', u'posInSet': 6, u'setSize': 6, u'present': u'y'}, {u'numberSet': u'8 5 3 7 4 6', u'target': 6, u'corrAns': u'right', u'posInSet': 6, u'setSize': 6, u'present': u'y'}]" valType="str" updates="None"/>\u000a      <Param name="trialListFile" val="mainTrials.xlsx" valType="str" updates="None"/>\u000a    </LoopInitiator>\u000a    <Routine name="trial"/>\u000a    <LoopTerminator name="trials"/>\u000a  </Flow>\u000a</PsychoPy2experiment>\u000a
p4
sS'thisTrial'
p5
(lp6
sS'originPath'
p7
VH:\u005cLab2_Sternberg\u005csternberg\u005csternberg.psyexp
p8
sS'thisRepN'
p9
I1
sS'nTotal'
p10
I126
sS'extraInfo'
p11
(dp12
S'date'
p13
S'2011_Oct_20_1114'
p14
sS'expName'
p15
S'None'
p16
sS'session'
p17
I2
sS'participant'
p18
Vlpycb5
p19
ssS'data'
p20
ccopy_reg
_reconstructor
p21
(cpsychopy.data
DataHandler
p22
c__builtin__
dict
p23
(dp24
S'ran'
p25
cnumpy.ma.core
_mareconstruct
p26
(cnumpy.ma.core
MaskedArray
p27
cnumpy
ndarray
p28
(I0
tp29
S'b'
tRp30
(I1
(I126
I1
tcnumpy
dtype
p31
(S'f4'
I0
I1
tRp32
(I3
S'<'
NNNI-1
I-1
I0
tbI00
S'\x00\x00\x80?\x00\x00\x80?\x00\x00\x80?\x00\x00\x80?\x00\x00\x80?\x00\x00\x80?\x00\x00\x80?\x00\x00\x80?\x00\x00\x80?\x00\x00\x80?\x00\x00\x80?\x00\x00\x80?\x00\x00\x80?\x00\x00\x80?\x00\x00\x80?\x00\x00\x80?\x00\x00\x80?\x00\x00\x80?\x00\x00\x80?\x00\x00\x80?\x00\x00\x80?\x00\x00\x80?\x00\x00\x80?\x00\x00\x80?\x00\x00\x80?\x00\x00\x80?\x00\x00\x80?\x00\x00\x80?\x00\x00\x80?\x00\x00\x80?\x00\x00\x80?\x00\x00\x80?\x00\x00\x80?\x00\x00\x80?\x00\x00\x80?\x00\x00\x80?\x00\x00\x80?\x00\x00\x80?\x00\x00\x80?\x00\x00\x80?\x00\x00\x80?\x00\x00\x80?\x00\x00\x80?\x00\x00\x80?\x00\x00\x80?\x00\x00\x80?\x00\x00\x80?\x00\x00\x80?\x00\x00\x80?\x00\x00\x80?\x00\x00\x80?\x00\x00\x80?\x00\x00\x80?\x00\x00\x80?\x00\x00\x80?\x00\x00\x80?\x00\x00\x80?\x00\x00\x80?\x00\x00\x80?\x00\x00\x80?\x00\x00\x80?\x00\x00\x80?\x00\x00\x80?\x00\x00\x80?\x00\x00\x80?\x00\x00\x80?\x00\x00\x80?\x00\x00\x80?\x00\x00\x80?\x00\x00\x80?\x00\x00\x80?\x00\x00\x80?\x00\x00\x80?\x00\x00\x80?\x00\x00\x80?\x00\x00\x80?\x00\x00\x80?\x00\x00\x80?\x00\x00\x80?\x00\x00\x80?\x00\x00\x80?\x00\x00\x80?\x00\x00\x80?\x00\x00\x80?\x00\x00\x80?\x00\x00\x80?\x00\x00\x80?\x00\x00\x80?\x00\x00\x80?\x00\x00\x80?\x00\x00\x80?\x00\x00\x80?\x00\x00\x80?\x00\x00\x80?\x00\x00\x80?\x00\x00\x80?\x00\x00\x80?\x00\x00\x80?\x00\x00\x80?\x00\x00\x80?\x00\x00\x80?\x00\x00\x80?\x00\x00\x80?\x00\x00\x80?\x00\x00\x80?\x00\x00\x80?\x00\x00\x80?\x00\x00\x80?\x00\x00\x80?\x00\x00\x80?\x00\x00\x80?\x00\x00\x80?\x00\x00\x80?\x00\x00\x80?\x00\x00\x80?\x00\x00\x80?\x00\x00\x80?\x00\x00\x80?\x00\x00\x80?\x00\x00\x80?\x00\x00\x80?\x00\x00\x80?\x00\x00\x80?\x00\x00\x80?\x00\x00\x80?\x00\x00\x80?'
S'\x00\x00\x00\x00\x00\x00\x00\x00\x00\x00\x00\x00\x00\x00\x00\x00\x00\x00\x00\x00\x00\x00\x00\x00\x00\x00\x00\x00\x00\x00\x00\x00\x00\x00\x00\x00\x00\x00\x00\x00\x00\x00\x00\x00\x00\x00\x00\x00\x00\x00\x00\x00\x00\x00\x00\x00\x00\x00\x00\x00\x00\x00\x00\x00\x00\x00\x00\x00\x00\x00\x00\x00\x00\x00\x00\x00\x00\x00\x00\x00\x00\x00\x00\x00\x00\x00\x00\x00\x00\x00\x00\x00\x00\x00\x00\x00\x00\x00\x00\x00\x00\x00\x00\x00\x00\x00\x00\x00\x00\x00\x00\x00\x00\x00\x00\x00\x00\x00\x00\x00\x00\x00\x00\x00\x00\x00'
NtbsS'resp.keys'
p33
cnumpy.core.multiarray
_reconstruct
p34
(g28
(I0
tS'b'
tRp35
(I1
(I126
I1
tg31
(S'O4'
I0
I1
tRp36
(I3
S'|'
NNNI-1
I-1
I63
tbI00
(lp37
S'left'
p38
aS'left'
p39
aS'left'
p40
aS'right'
p41
aS'right'
p42
aS'right'
p43
aS'right'
p44
aS'left'
p45
aS'right'
p46
aS'right'
p47
aS'left'
p48
aS'right'
p49
aS'left'
p50
aS'left'
p51
aS'right'
p52
aS'right'
p53
aS'right'
p54
aS'right'
p55
aS'left'
p56
aS'left'
p57
aS'left'
p58
aS'right'
p59
aS'left'
p60
aS'left'
p61
aS'left'
p62
aS'left'
p63
aS'left'
p64
aS'left'
p65
aS'right'
p66
aS'right'
p67
aS'left'
p68
aS'right'
p69
aS'left'
p70
aS'right'
p71
aS'right'
p72
aS'right'
p73
aS'left'
p74
aS'left'
p75
aS'left'
p76
aS'left'
p77
aS'right'
p78
aS'right'
p79
aS'left'
p80
aS'left'
p81
aS'left'
p82
aS'right'
p83
aS'right'
p84
aS'right'
p85
aS'left'
p86
aS'left'
p87
aS'left'
p88
aS'right'
p89
aS'right'
p90
aS'left'
p91
aS'left'
p92
aS'left'
p93
aS'left'
p94
aS'right'
p95
aS'right'
p96
aS'right'
p97
aS'left'
p98
aS'left'
p99
aS'left'
p100
aS'left'
p101
aS'right'
p102
aS'right'
p103
aS'left'
p104
aS'left'
p105
aS'left'
p106
aS'right'
p107
aS'right'
p108
aS'right'
p109
aS'left'
p110
aS'left'
p111
aS'left'
p112
aS'right'
p113
aS'left'
p114
aS'right'
p115
aS'left'
p116
aS'left'
p117
aS'left'
p118
aS'left'
p119
aS'right'
p120
aS'right'
p121
aS'left'
p122
aS'left'
p123
aS'left'
p124
aS'right'
p125
aS'right'
p126
aS'right'
p127
aS'left'
p128
aS'left'
p129
aS'left'
p130
aS'right'
p131
aS'right'
p132
aS'right'
p133
aS'left'
p134
aS'left'
p135
aS'left'
p136
aS'right'
p137
aS'right'
p138
aS'right'
p139
aS'left'
p140
aS'left'
p141
aS'left'
p142
aS'left'
p143
aS'right'
p144
aS'right'
p145
aS'left'
p146
aS'left'
p147
aS'left'
p148
aS'right'
p149
aS'right'
p150
aS'left'
p151
aS'left'
p152
aS'left'
p153
aS'left'
p154
aS'right'
p155
aS'right'
p156
aS'left'
p157
aS'left'
p158
aS'left'
p159
aS'left'
p160
aS'right'
p161
aS'right'
p162
aS'right'
p163
atbsS'resp.corr'
p164
g26
(g27
g28
g29
S'b'
tRp165
(I1
(I126
I1
tg32
I00
S'\x00\x00\x80?\x00\x00\x80?\x00\x00\x80?\x00\x00\x80?\x00\x00\x80?\x00\x00\x80?\x00\x00\x00\x00\x00\x00\x80?\x00\x00\x00\x00\x00\x00\x80?\x00\x00\x00\x00\x00\x00\x80?\x00\x00\x80?\x00\x00\x80?\x00\x00\x00\x00\x00\x00\x80?\x00\x00\x80?\x00\x00\x80?\x00\x00\x80?\x00\x00\x80?\x00\x00\x80?\x00\x00\x80?\x00\x00\x00\x00\x00\x00\x00\x00\x00\x00\x80?\x00\x00\x80?\x00\x00\x80?\x00\x00\x00\x00\x00\x00\x80?\x00\x00\x80?\x00\x00\x80?\x00\x00\x00\x00\x00\x00\x80?\x00\x00\x80?\x00\x00\x80?\x00\x00\x80?\x00\x00\x80?\x00\x00\x80?\x00\x00\x80?\x00\x00\x00\x00\x00\x00\x80?\x00\x00\x80?\x00\x00\x80?\x00\x00\x80?\x00\x00\x80?\x00\x00\x80?\x00\x00\x80?\x00\x00\x80?\x00\x00\x80?\x00\x00\x80?\x00\x00\x80?\x00\x00\x80?\x00\x00\x80?\x00\x00\x00\x00\x00\x00\x80?\x00\x00\x80?\x00\x00\x80?\x00\x00\x80?\x00\x00\x80?\x00\x00\x80?\x00\x00\x80?\x00\x00\x80?\x00\x00\x80?\x00\x00\x00\x00\x00\x00\x80?\x00\x00\x80?\x00\x00\x80?\x00\x00\x80?\x00\x00\x80?\x00\x00\x80?\x00\x00\x80?\x00\x00\x80?\x00\x00\x80?\x00\x00\x80?\x00\x00\x80?\x00\x00\x80?\x00\x00\x00\x00\x00\x00\x80?\x00\x00\x80?\x00\x00\x80?\x00\x00\x80?\x00\x00\x00\x00\x00\x00\x80?\x00\x00\x80?\x00\x00\x80?\x00\x00\x80?\x00\x00\x80?\x00\x00\x80?\x00\x00\x80?\x00\x00\x80?\x00\x00\x80?\x00\x00\x80?\x00\x00\x80?\x00\x00\x80?\x00\x00\x80?\x00\x00\x80?\x00\x00\x80?\x00\x00\x80?\x00\x00\x80?\x00\x00\x80?\x00\x00\x80?\x00\x00\x80?\x00\x00\x80?\x00\x00\x80?\x00\x00\x80?\x00\x00\x00\x00\x00\x00\x80?\x00\x00\x80?\x00\x00\x80?\x00\x00\x80?\x00\x00\x80?\x00\x00\x80?\x00\x00\x80?\x00\x00\x00\x00\x00\x00\x80?\x00\x00\x80?\x00\x00\x80?\x00\x00\x80?\x00\x00\x80?\x00\x00\x00\x00\x00\x00\x80?\x00\x00\x80?\x00\x00\x80?\x00\x00\x80?\x00\x00\x80?\x00\x00\x80?'
S'\x00\x00\x00\x00\x00\x00\x00\x00\x00\x00\x00\x00\x00\x00\x00\x00\x00\x00\x00\x00\x00\x00\x00\x00\x00\x00\x00\x00\x00\x00\x00\x00\x00\x00\x00\x00\x00\x00\x00\x00\x00\x00\x00\x00\x00\x00\x00\x00\x00\x00\x00\x00\x00\x00\x00\x00\x00\x00\x00\x00\x00\x00\x00\x00\x00\x00\x00\x00\x00\x00\x00\x00\x00\x00\x00\x00\x00\x00\x00\x00\x00\x00\x00\x00\x00\x00\x00\x00\x00\x00\x00\x00\x00\x00\x00\x00\x00\x00\x00\x00\x00\x00\x00\x00\x00\x00\x00\x00\x00\x00\x00\x00\x00\x00\x00\x00\x00\x00\x00\x00\x00\x00\x00\x00\x00\x00'
NtbsS'resp.rt'
p166
g26
(g27
g28
g29
S'b'
tRp167
(I1
(I126
I1
tg32
I00
S'\xa6\xf8H?\xb8\xb4s?\xb9\xa8\x15?\xb2\x06+?\x83g\x82?\x19D|?\xee\x81Q?\xc8|"?Ze@?}\xf5H?\xeeM/?\x01h\x82?\xba\xf6H?\xdc#<?\x07\x8c\x84?\xb3M/?ph@?S\'<?\xf9\x9ab?j{"?\xd1f@?3\t+?\x92\xa8\x15?\x90a\x11?VF\x80?G\xba&?\xe6\xd37?@\x0eZ?\xd5jo?\x1c)k?\x9f\x933?\xcf-\x1e?\x9c\x1a\r?\xf1\xdb7?\xbe\x08+?\x8f\xd27?\x80\x0b+?a\xad\x86?E\xe8\xd7?\xc5\x953?\xf4\xa4\x95?\x05\xf5\x8a?\x01\xe2f?l\xdc7?2\x85Q?\x99\xdc7?^\xadD?\x8f\x1a\r?g\xd1\x88?b\x8b\x84?\x83\xbe\xa6?\x8e\xb5s?\xa2!<?\x92\x19\r?\x99\x8b\x84?\xa9\x1a\r?\x8af@?\xd0oo?\xc4h@?\x85<M?~\x953?\xaa\x9eb?\xe4\xd4\x08?{W^?nc\x82?B\xe2f?2\xfdw?R!k?`\xa3\x95?G\xaeD?W\xea\x99?zg\x82?X\x1b\r?\xf9\x07\xab?\xec\x933?h!<?\xdd\xa7\x15?\xfb\xf9w?\xdcz"?\xbe\xf4\x8a?\x9aM/?\x82\xc1&?\r\xaeD?\xfc\xbc\xa6?(\xf2\x19?\xddj@?\xa6\xa4\x95?u\xe2f?\xd0\xf9H?\xc7g@?\xf8\x80Q?\x9bB|?\xf8\x87\xc2?\xf2^\x91?\x9f\x8b\x84?\x16\xaf\x86?])k?f\x0f\xbc?\x10\xae\x86?\x15\xe0f?\x06\xb5s?\xd7\xads?g\x9bb?Bj@?l\xe1f?o\xc8U?[l@?\xae\xb5s?\x12\x983?b\x17\x8d?o\xe2f?\xa3U^?\xcb\x953?\xcbD\x80?:\x0b\xda?\xc7\xf4\x8a?\xa1J\xaf?\xc8\x943?(T\xa0?\xa2[\xcf?\xa8(k?\xa0y\xd1?\x11T^?\xc6A|?\x1a\xb0D?\xc8\x0eZ?'
S'\x00\x00\x00\x00\x00\x00\x00\x00\x00\x00\x00\x00\x00\x00\x00\x00\x00\x00\x00\x00\x00\x00\x00\x00\x00\x00\x00\x00\x00\x00\x00\x00\x00\x00\x00\x00\x00\x00\x00\x00\x00\x00\x00\x00\x00\x00\x00\x00\x00\x00\x00\x00\x00\x00\x00\x00\x00\x00\x00\x00\x00\x00\x00\x00\x00\x00\x00\x00\x00\x00\x00\x00\x00\x00\x00\x00\x00\x00\x00\x00\x00\x00\x00\x00\x00\x00\x00\x00\x00\x00\x00\x00\x00\x00\x00\x00\x00\x00\x00\x00\x00\x00\x00\x00\x00\x00\x00\x00\x00\x00\x00\x00\x00\x00\x00\x00\x00\x00\x00\x00\x00\x00\x00\x00\x00\x00'
NtbstRp168
(dp169
S'isNumeric'
p170
(dp171
g25
I01
sg33
I00
sg166
I01
sg164
I01
ssS'trials'
p172
g1
sS'dataTypes'
p173
(lp174
g25
ag33
ag164
ag166
asS'dataShape'
p175
(lp176
I126
aI1
asbsS'_warnUseOfNext'
p177
I01
sS'sequenceIndices'
p178
g34
(g28
(I0
tS'b'
tRp179
(I1
(I126
I1
tg31
(S'i4'
I0
I1
tRp180
(I3
S'<'
NNNI-1
I-1
I0
tbI01
S'a\x00\x00\x00n\x00\x00\x00\\\x00\x00\x00F\x00\x00\x00\n\x00\x00\x00U\x00\x00\x00k\x00\x00\x00`\x00\x00\x00G\x00\x00\x00^\x00\x00\x002\x00\x00\x00&\x00\x00\x00\x08\x00\x00\x00]\x00\x00\x009\x00\x00\x00s\x00\x00\x00\'\x00\x00\x00#\x00\x00\x00O\x00\x00\x00I\x00\x00\x00t\x00\x00\x00M\x00\x00\x00;\x00\x00\x00z\x00\x00\x006\x00\x00\x00\x1e\x00\x00\x00E\x00\x00\x00\x00\x00\x00\x00\x10\x00\x00\x00X\x00\x00\x00d\x00\x00\x00+\x00\x00\x00w\x00\x00\x00,\x00\x00\x00y\x00\x00\x00|\x00\x00\x00u\x00\x00\x00\r\x00\x00\x00\x0b\x00\x00\x008\x00\x00\x00\x1d\x00\x00\x00.\x00\x00\x00\x14\x00\x00\x00"\x00\x00\x00%\x00\x00\x00=\x00\x00\x004\x00\x00\x00*\x00\x00\x001\x00\x00\x00\x1f\x00\x00\x00?\x00\x00\x00W\x00\x00\x00b\x00\x00\x00m\x00\x00\x00\x15\x00\x00\x00J\x00\x00\x00A\x00\x00\x00(\x00\x00\x00[\x00\x00\x00q\x00\x00\x00\x12\x00\x00\x00\x06\x00\x00\x003\x00\x00\x00B\x00\x00\x00S\x00\x00\x00\x0f\x00\x00\x00-\x00\x00\x00r\x00\x00\x00j\x00\x00\x00l\x00\x00\x00R\x00\x00\x00\x18\x00\x00\x00<\x00\x00\x00Y\x00\x00\x00K\x00\x00\x00!\x00\x00\x00p\x00\x00\x00v\x00\x00\x00\x13\x00\x00\x00g\x00\x00\x00P\x00\x00\x00h\x00\x00\x005\x00\x00\x00\x16\x00\x00\x00\x01\x00\x00\x00\x03\x00\x00\x00Q\x00\x00\x00:\x00\x00\x00}\x00\x00\x00\x1a\x00\x00\x00@\x00\x00\x00)\x00\x00\x00c\x00\x00\x00T\x00\x00\x00C\x00\x00\x00\x19\x00\x00\x00{\x00\x00\x00f\x00\x00\x00 \x00\x00\x00\x05\x00\x00\x00\x11\x00\x00\x00Z\x00\x00\x00D\x00\x00\x00V\x00\x00\x00\t\x00\x00\x00\x02\x00\x00\x000\x00\x00\x00L\x00\x00\x00\x0e\x00\x00\x00\x0c\x00\x00\x00\x04\x00\x00\x00\x1c\x00\x00\x00$\x00\x00\x00e\x00\x00\x00i\x00\x00\x007\x00\x00\x00N\x00\x00\x00>\x00\x00\x00o\x00\x00\x00\x1b\x00\x00\x00\x07\x00\x00\x00x\x00\x00\x00\x17\x00\x00\x00H\x00\x00\x00_\x00\x00\x00/\x00\x00\x00'
tbsS'finished'
p181
I01
sS'nReps'
p182
I1
sS'nRemaining'
p183
I-1
sS'trialList'
p184
(lp185
g21
(cpsychopy.data
TrialType
p186
g23
(dp187
VnumberSet
p188
I5
sVtarget
p189
I8
sVposInSet
p190
V--
p191
sVsetSize
p192
I1
sVpresent
p193
Vn
sVcorrAns
p194
Vleft
p195
stRp196
ag21
(g186
g23
(dp197
g188
I9
sg189
I6
sg190
g191
sg192
I1
sg193
Vn
sg194
g195
stRp198
ag21
(g186
g23
(dp199
g188
I1
sg189
I7
sg190
g191
sg192
I1
sg193
Vn
sg194
g195
stRp200
ag21
(g186
g23
(dp201
g188
I4
sg189
I4
sg190
I1
sg192
I1
sg193
Vy
sg194
Vright
p202
stRp203
ag21
(g186
g23
(dp204
g188
I7
sg189
I7
sg190
I1
sg192
I1
sg193
Vy
sg194
g202
stRp205
ag21
(g186
g23
(dp206
g188
I8
sg189
I8
sg190
I1
sg192
I1
sg193
Vy
sg194
g202
stRp207
ag21
(g186
g23
(dp208
g188
V8 9
p209
sg189
I5
sg190
g191
sg192
I2
sg193
Vn
sg194
g195
stRp210
ag21
(g186
g23
(dp211
g188
V6 8
p212
sg189
I9
sg190
g191
sg192
I2
sg193
Vn
sg194
g195
stRp213
ag21
(g186
g23
(dp214
g188
V7 9
p215
sg189
I1
sg190
g191
sg192
I2
sg193
Vn
sg194
g195
stRp216
ag21
(g186
g23
(dp217
g188
V6 2
p218
sg189
I6
sg190
I1
sg192
I2
sg193
Vy
sg194
g202
stRp219
ag21
(g186
g23
(dp220
g188
V2 3
p221
sg189
I2
sg190
I1
sg192
I2
sg193
Vy
sg194
g202
stRp222
ag21
(g186
g23
(dp223
g188
V3 4
p224
sg189
I3
sg190
I1
sg192
I2
sg193
Vy
sg194
g202
stRp225
ag21
(g186
g23
(dp226
g188
V7 1
p227
sg189
I8
sg190
g191
sg192
I2
sg193
Vn
sg194
g195
stRp228
ag21
(g186
g23
(dp229
g188
V4 1
p230
sg189
I6
sg190
g191
sg192
I2
sg193
Vn
sg194
g195
stRp231
ag21
(g186
g23
(dp232
g188
V5 2
p233
sg189
I7
sg190
g191
sg192
I2
sg193
Vn
sg194
g195
stRp234
ag21
(g186
g23
(dp235
g188
V8 3
p236
sg189
I3
sg190
I2
sg192
I2
sg193
Vy
sg194
g202
stRp237
ag21
(g186
g23
(dp238
g188
V6 5
p239
sg189
I5
sg190
I2
sg192
I2
sg193
Vy
sg194
g202
stRp240
ag21
(g186
g23
(dp241
g188
V7 6
p242
sg189
I6
sg190
I2
sg192
I2
sg193
Vy
sg194
g202
stRp243
ag21
(g186
g23
(dp244
g188
V6 9 5
p245
sg189
I8
sg190
g191
sg192
I3
sg193
Vn
sg194
g195
stRp246
ag21
(g186
g23
(dp247
g188
V2 8 9
p248
sg189
I6
sg190
g191
sg192
I3
sg193
Vn
sg194
g195
stRp249
ag21
(g186
g23
(dp250
g188
V3 9 1
p251
sg189
I7
sg190
g191
sg192
I3
sg193
Vn
sg194
g195
stRp252
ag21
(g186
g23
(dp253
g188
V9 4 2
p254
sg189
I9
sg190
I1
sg192
I3
sg193
Vy
sg194
g202
stRp255
ag21
(g186
g23
(dp256
g188
V8 7 3
p257
sg189
I8
sg190
I1
sg192
I3
sg193
Vy
sg194
g202
stRp258
ag21
(g186
g23
(dp259
g188
V9 8 4
p260
sg189
I9
sg190
I1
sg192
I3
sg193
Vy
sg194
g202
stRp261
ag21
(g186
g23
(dp262
g188
V3 4 2
p263
sg189
I5
sg190
g191
sg192
I3
sg193
Vn
sg194
g195
stRp264
ag21
(g186
g23
(dp265
g188
V5 7 3
p266
sg189
I9
sg190
g191
sg192
I3
sg193
Vn
sg194
g195
stRp267
ag21
(g186
g23
(dp268
g188
V6 8 4
p269
sg189
I1
sg190
g191
sg192
I3
sg193
Vn
sg194
g195
stRp270
ag21
(g186
g23
(dp271
g188
V7 1 3
p272
sg189
I1
sg190
I2
sg192
I3
sg193
Vy
sg194
g202
stRp273
ag21
(g186
g23
(dp274
g188
V4 1 5
p275
sg189
I1
sg190
I2
sg192
I3
sg193
Vy
sg194
g202
stRp276
ag21
(g186
g23
(dp277
g188
V5 2 6
p278
sg189
I2
sg190
I2
sg192
I3
sg193
Vy
sg194
g202
stRp279
ag21
(g186
g23
(dp280
g188
V1 8 7
p281
sg189
I4
sg190
g191
sg192
I3
sg193
Vn
sg194
g195
stRp282
ag21
(g186
g23
(dp283
g188
V1 6 4
p284
sg189
I7
sg190
g191
sg192
I3
sg193
Vn
sg194
g195
stRp285
ag21
(g186
g23
(dp286
g188
V2 7 5
p287
sg189
I8
sg190
g191
sg192
I3
sg193
Vn
sg194
g195
stRp288
ag21
(g186
g23
(dp289
g188
V8 1 6
p290
sg189
I6
sg190
I3
sg192
I3
sg193
Vy
sg194
g202
stRp291
ag21
(g186
g23
(dp292
g188
V6 1 2
p293
sg189
I2
sg190
I3
sg192
I3
sg193
Vy
sg194
g202
stRp294
ag21
(g186
g23
(dp295
g188
V7 2 3
p296
sg189
I3
sg190
I3
sg192
I3
sg193
Vy
sg194
g202
stRp297
ag21
(g186
g23
(dp298
g188
V4 2 6 9
p299
sg189
I7
sg190
g191
sg192
I4
sg193
Vn
sg194
g195
stRp300
ag21
(g186
g23
(dp301
g188
V7 3 2 8
p302
sg189
I4
sg190
g191
sg192
I4
sg193
Vn
sg194
g195
stRp303
ag21
(g186
g23
(dp304
g188
V8 4 3 9
p305
sg189
I5
sg190
g191
sg192
I4
sg193
Vn
sg194
g195
stRp306
ag21
(g186
g23
(dp307
g188
V2 3 7 4
p308
sg189
I2
sg190
I1
sg192
I4
sg193
Vy
sg194
g202
stRp309
ag21
(g186
g23
(dp310
g188
V3 5 4 7
p311
sg189
I3
sg190
I1
sg192
I4
sg193
Vy
sg194
g202
stRp312
ag21
(g186
g23
(dp313
g188
V4 6 5 8
p314
sg189
I4
sg190
I1
sg192
I4
sg193
Vy
sg194
g202
stRp315
ag21
(g186
g23
(dp316
g188
V8 4 3 5
p317
sg189
I6
sg190
g191
sg192
I4
sg193
Vn
sg194
g195
stRp318
ag21
(g186
g23
(dp319
g188
V6 7 5 9
p320
sg189
I2
sg190
g191
sg192
I4
sg193
Vn
sg194
g195
stRp321
ag21
(g186
g23
(dp322
g188
V7 8 6 1
p323
sg189
I3
sg190
g191
sg192
I4
sg193
Vn
sg194
g195
stRp324
ag21
(g186
g23
(dp325
g188
V9 5 8 1
p326
sg189
I5
sg190
I2
sg192
I4
sg193
Vy
sg194
g202
stRp327
ag21
(g186
g23
(dp328
g188
V8 9 6 1
p329
sg189
I9
sg190
I2
sg192
I4
sg193
Vy
sg194
g202
stRp330
ag21
(g186
g23
(dp331
g188
V9 1 7 2
p332
sg189
I1
sg190
I2
sg192
I4
sg193
Vy
sg194
g202
stRp333
ag21
(g186
g23
(dp334
g188
V1 7 5 2
p335
sg189
I3
sg190
g191
sg192
I4
sg193
Vn
sg194
g195
stRp336
ag21
(g186
g23
(dp337
g188
V1 4 9 3
p338
sg189
I5
sg190
g191
sg192
I4
sg193
Vn
sg194
g195
stRp339
ag21
(g186
g23
(dp340
g188
V2 5 1 4
p341
sg189
I6
sg190
g191
sg192
I4
sg193
Vn
sg194
g195
stRp342
ag21
(g186
g23
(dp343
g188
V6 7 8 5
p344
sg189
I8
sg190
I3
sg192
I4
sg193
Vy
sg194
g202
stRp345
ag21
(g186
g23
(dp346
g188
V2 4 6 9
p347
sg189
I6
sg190
I3
sg192
I4
sg193
Vy
sg194
g202
stRp348
ag21
(g186
g23
(dp349
g188
V3 5 7 1
p350
sg189
I7
sg190
I3
sg192
I4
sg193
Vy
sg194
g202
stRp351
ag21
(g186
g23
(dp352
g188
V7 9 1 6
p353
sg189
I4
sg190
g191
sg192
I4
sg193
Vn
sg194
g195
stRp354
ag21
(g186
g23
(dp355
g188
V4 8 1 2
p356
sg189
I7
sg190
g191
sg192
I4
sg193
Vn
sg194
g195
stRp357
ag21
(g186
g23
(dp358
g188
V5 9 2 3
p359
sg189
I8
sg190
g191
sg192
I4
sg193
Vn
sg194
g195
stRp360
ag21
(g186
g23
(dp361
g188
V6 9 3 1
p362
sg189
I1
sg190
I4
sg192
I4
sg193
Vy
sg194
g202
stRp363
ag21
(g186
g23
(dp364
g188
V2 8 5 1
p365
sg189
I1
sg190
I4
sg192
I4
sg193
Vy
sg194
g202
stRp366
ag21
(g186
g23
(dp367
g188
V3 9 6 2
p368
sg189
I2
sg190
I4
sg192
I4
sg193
Vy
sg194
g202
stRp369
ag21
(g186
g23
(dp370
g188
V1 4 3 6 5
p371
sg189
I8
sg190
g191
sg192
I5
sg193
Vn
sg194
g195
stRp372
ag21
(g186
g23
(dp373
g188
V1 7 5 2 9
p374
sg189
I3
sg190
g191
sg192
I5
sg193
Vn
sg194
g195
stRp375
ag21
(g186
g23
(dp376
g188
V2 8 6 3 1
p377
sg189
I7
sg190
g191
sg192
I5
sg193
Vn
sg194
g195
stRp378
ag21
(g186
g23
(dp379
g188
V9 5 3 8 4
p380
sg189
I9
sg190
I1
sg192
I5
sg193
Vy
sg194
g202
stRp381
ag21
(g186
g23
(dp382
g188
V8 9 5 6 7
p383
sg189
I8
sg190
I1
sg192
I5
sg193
Vy
sg194
g202
stRp384
ag21
(g186
g23
(dp385
g188
V9 1 6 7 8
p386
sg189
I9
sg190
I1
sg192
I5
sg193
Vy
sg194
g202
stRp387
ag21
(g186
g23
(dp388
g188
V9 8 2 7 4
p389
sg189
I5
sg190
g191
sg192
I5
sg193
Vn
sg194
g195
stRp390
ag21
(g186
g23
(dp391
g188
V8 6 3 4 7
p392
sg189
I1
sg190
g191
sg192
I5
sg193
Vn
sg194
g195
stRp393
ag21
(g186
g23
(dp394
g188
V9 7 4 5 8
p395
sg189
I6
sg190
g191
sg192
I5
sg193
Vn
sg194
g195
stRp396
ag21
(g186
g23
(dp397
g188
V2 6 1 7 4
p398
sg189
I6
sg190
I2
sg192
I5
sg193
Vy
sg194
g202
stRp399
ag21
(g186
g23
(dp400
g188
V3 2 1 4 7
p401
sg189
I2
sg190
I2
sg192
I5
sg193
Vy
sg194
g202
stRp402
ag21
(g186
g23
(dp403
g188
V4 3 2 5 8
p404
sg189
I3
sg190
I2
sg192
I5
sg193
Vy
sg194
g202
stRp405
ag21
(g186
g23
(dp406
g188
V1 3 2 6 9
p407
sg189
I5
sg190
g191
sg192
I5
sg193
Vn
sg194
g195
stRp408
ag21
(g186
g23
(dp409
g188
V1 5 3 2 8
p410
sg189
I4
sg190
g191
sg192
I5
sg193
Vn
sg194
g195
stRp411
ag21
(g186
g23
(dp412
g188
V2 6 4 3 9
p413
sg189
I1
sg190
g191
sg192
I5
sg193
Vn
sg194
g195
stRp414
ag21
(g186
g23
(dp415
g188
V2 5 4 8 7
p416
sg189
I4
sg190
I3
sg192
I5
sg193
Vy
sg194
g202
stRp417
ag21
(g186
g23
(dp418
g188
V3 9 7 6 4
p419
sg189
I7
sg190
I3
sg192
I5
sg193
Vy
sg194
g202
stRp420
ag21
(g186
g23
(dp421
g188
V4 1 8 7 5
p422
sg189
I8
sg190
I3
sg192
I5
sg193
Vy
sg194
g202
stRp423
ag21
(g186
g23
(dp424
g188
V8 5 7 3 6
p425
sg189
I9
sg190
g191
sg192
I5
sg193
Vn
sg194
g195
stRp426
ag21
(g186
g23
(dp427
g188
V6 9 4 5 2
p428
sg189
I1
sg190
g191
sg192
I5
sg193
Vn
sg194
g195
stRp429
ag21
(g186
g23
(dp430
g188
V7 1 5 6 3
p431
sg189
I8
sg190
g191
sg192
I5
sg193
Vn
sg194
g195
stRp432
ag21
(g186
g23
(dp433
g188
V9 3 1 2 5
p434
sg189
I2
sg190
I4
sg192
I5
sg193
Vy
sg194
g202
stRp435
ag21
(g186
g23
(dp436
g188
V8 5 1 3 9
p437
sg189
I3
sg190
I4
sg192
I5
sg193
Vy
sg194
g202
stRp438
ag21
(g186
g23
(dp439
g188
V9 6 2 4 1
p440
sg189
I4
sg190
I4
sg192
I5
sg193
Vy
sg194
g202
stRp441
ag21
(g186
g23
(dp442
g188
V1 4 9 2 5
p443
sg189
I7
sg190
g191
sg192
I5
sg193
Vn
sg194
g195
stRp444
ag21
(g186
g23
(dp445
g188
V1 7 8 3 9
p446
sg189
I2
sg190
g191
sg192
I5
sg193
Vn
sg194
g195
stRp447
ag21
(g186
g23
(dp448
g188
V2 8 9 4 1
p449
sg189
I5
sg190
g191
sg192
I5
sg193
Vn
sg194
g195
stRp450
ag21
(g186
g23
(dp451
g188
V7 8 6 3 1
p452
sg189
I1
sg190
I5
sg192
I5
sg193
Vy
sg194
g202
stRp453
ag21
(g186
g23
(dp454
g188
V4 6 2 5 1
p455
sg189
I1
sg190
I5
sg192
I5
sg193
Vy
sg194
g202
stRp456
ag21
(g186
g23
(dp457
g188
V5 7 3 6 2
p458
sg189
I2
sg190
I5
sg192
I5
sg193
Vy
sg194
g202
stRp459
ag21
(g186
g23
(dp460
g188
V5 3 2 6 9 8
p461
sg189
I4
sg190
g191
sg192
I6
sg193
Vn
sg194
g195
stRp462
ag21
(g186
g23
(dp463
g188
V9 5 3 2 8 6
p464
sg189
I7
sg190
g191
sg192
I6
sg193
Vn
sg194
g195
stRp465
ag21
(g186
g23
(dp466
g188
V1 6 4 3 9 7
p467
sg189
I8
sg190
g191
sg192
I6
sg193
Vn
sg194
g195
stRp468
ag21
(g186
g23
(dp469
g188
V6 7 9 3 1 2
p470
sg189
I6
sg190
I1
sg192
I6
sg193
Vy
sg194
g202
stRp471
ag21
(g186
g23
(dp472
g188
V2 4 8 5 1 3
p473
sg189
I2
sg190
I1
sg192
I6
sg193
Vy
sg194
g202
stRp474
ag21
(g186
g23
(dp475
g188
V3 5 9 6 2 4
p476
sg189
I3
sg190
I1
sg192
I6
sg193
Vy
sg194
g202
stRp477
ag21
(g186
g23
(dp478
g188
V6 2 9 3 8 4
p479
sg189
I1
sg190
g191
sg192
I6
sg193
Vn
sg194
g195
stRp480
ag21
(g186
g23
(dp481
g188
V2 3 8 5 6 7
p482
sg189
I1
sg190
g191
sg192
I6
sg193
Vn
sg194
g195
stRp483
ag21
(g186
g23
(dp484
g188
V3 4 9 6 7 8
p485
sg189
I2
sg190
g191
sg192
I6
sg193
Vn
sg194
g195
stRp486
ag21
(g186
g23
(dp487
g188
V8 5 4 7 3 1
p488
sg189
I5
sg190
I2
sg192
I6
sg193
Vy
sg194
g202
stRp489
ag21
(g186
g23
(dp490
g188
V6 9 7 4 5 1
p491
sg189
I9
sg190
I2
sg192
I6
sg193
Vy
sg194
g202
stRp492
ag21
(g186
g23
(dp493
g188
V7 1 8 5 6 2
p494
sg189
I1
sg190
I2
sg192
I6
sg193
Vy
sg194
g202
stRp495
ag21
(g186
g23
(dp496
g188
V8 2 1 4 5 9
p497
sg189
I7
sg190
g191
sg192
I6
sg193
Vn
sg194
g195
stRp498
ag21
(g186
g23
(dp499
g188
V6 3 1 7 9 8
p500
sg189
I4
sg190
g191
sg192
I6
sg193
Vn
sg194
g195
stRp501
ag21
(g186
g23
(dp502
g188
V7 4 2 8 1 9
p503
sg189
I5
sg190
g191
sg192
I6
sg193
Vn
sg194
g195
stRp504
ag21
(g186
g23
(dp505
g188
V5 2 9 6 1 7
p506
sg189
I9
sg190
I3
sg192
I6
sg193
Vy
sg194
g202
stRp507
ag21
(g186
g23
(dp508
g188
V9 3 8 2 1 4
p509
sg189
I8
sg190
I3
sg192
I6
sg193
Vy
sg194
g202
stRp510
ag21
(g186
g23
(dp511
g188
V1 4 9 3 2 5
p512
sg189
I9
sg190
I3
sg192
I6
sg193
Vy
sg194
g202
stRp513
ag21
(g186
g23
(dp514
g188
V6 9 4 5 3 2
p515
sg189
I8
sg190
g191
sg192
I6
sg193
Vn
sg194
g195
stRp516
ag21
(g186
g23
(dp517
g188
V2 8 7 9 5 3
p518
sg189
I6
sg190
g191
sg192
I6
sg193
Vn
sg194
g195
stRp519
ag21
(g186
g23
(dp520
g188
V3 9 8 1 6 4
p521
sg189
I7
sg190
g191
sg192
I6
sg193
Vn
sg194
g195
stRp522
ag21
(g186
g23
(dp523
g188
V4 9 7 8 5 3
p524
sg189
I8
sg190
I4
sg192
I6
sg193
Vy
sg194
g202
stRp525
ag21
(g186
g23
(dp526
g188
V7 8 4 6 9 5
p527
sg189
I6
sg190
I4
sg192
I6
sg193
Vy
sg194
g202
stRp528
ag21
(g186
g23
(dp529
g188
V8 9 5 7 1 6
p530
sg189
I7
sg190
I4
sg192
I6
sg193
Vy
sg194
g202
stRp531
ag21
(g186
g23
(dp532
g188
V8 5 4 2 9 6
p533
sg189
I3
sg190
g191
sg192
I6
sg193
Vn
sg194
g195
stRp534
ag21
(g186
g23
(dp535
g188
V6 9 7 3 8 2
p536
sg189
I5
sg190
g191
sg192
I6
sg193
Vn
sg194
g195
stRp537
ag21
(g186
g23
(dp538
g188
V7 1 8 4 9 3
p539
sg189
I6
sg190
g191
sg192
I6
sg193
Vn
sg194
g195
stRp540
ag21
(g186
g23
(dp541
g188
V3 4 9 6 2 9
p542
sg189
I2
sg190
I5
sg192
I6
sg193
Vy
sg194
g202
stRp543
ag21
(g186
g23
(dp544
g188
V5 7 8 2 3 8
p545
sg189
I3
sg190
I5
sg192
I6
sg193
Vy
sg194
g202
stRp546
ag21
(g186
g23
(dp547
g188
V6 8 9 3 4 9
p548
sg189
I4
sg190
I5
sg192
I6
sg193
Vy
sg194
g202
stRp549
ag21
(g186
g23
(dp550
g188
V7 6 4 8 1 2
p551
sg189
I9
sg190
g191
sg192
I6
sg193
Vn
sg194
g195
stRp552
ag21
(g186
g23
(dp553
g188
V4 2 7 6 1 3
p554
sg189
I8
sg190
g191
sg192
I6
sg193
Vn
sg194
g195
stRp555
ag21
(g186
g23
(dp556
g188
V5 3 8 7 2 4
p557
sg189
I9
sg190
g191
sg192
I6
sg193
Vn
sg194
g195
stRp558
ag21
(g186
g23
(dp559
g188
V4 7 6 8 2 3
p560
sg189
I3
sg190
I6
sg192
I6
sg193
Vy
sg194
g202
stRp561
ag21
(g186
g23
(dp562
g188
V7 4 2 6 3 5
p563
sg189
I5
sg190
I6
sg192
I6
sg193
Vy
sg194
g202
stRp564
ag21
(g186
g23
(dp565
g188
V8 5 3 7 4 6
p566
sg189
I6
sg190
I6
sg192
I6
sg193
Vy
sg194
g202
stRp567
asS'seed'
p568
NsS'thisIndex'
p569
cnumpy.core.multiarray
scalar
p570
(g180
S'/\x00\x00\x00'
tRp571
sS'thisTrialN'
p572
I0
sS'method'
p573
S'random'
p574
sb.