(ipsychopy.data
TrialHandler
p1
(dp2
S'origin'
p3
V<PsychoPy2experiment version="1.50.04" encoding="utf-8">\u000a  <Settings>\u000a    <Param name="Save csv file" val="False" valType="bool" updates="None"/>\u000a    <Param name="Monitor" val="testMonitor" valType="str" updates="None"/>\u000a    <Param name="color" val="black" valType="str" updates="None"/>\u000a    <Param name="Window size (pixels)" val="[2560, 1440]" valType="code" updates="None"/>\u000a    <Param name="Full-screen window" val="True" valType="bool" updates="None"/>\u000a    <Param name="colorSpace" val="rgb" valType="str" updates="None"/>\u000a    <Param name="Save log file" val="True" valType="bool" updates="None"/>\u000a    <Param name="Experiment info" val="{'participant':'', 'session':'01'}" valType="code" updates="None"/>\u000a    <Param name="Save excel file" val="True" valType="bool" updates="None"/>\u000a    <Param name="Save psydat file" val="True" valType="bool" updates="None"/>\u000a    <Param name="logging level" val="exp" valType="code" updates="None"/>\u000a    <Param name="Units" val="norm" valType="str" updates="None"/>\u000a    <Param name="Show info dlg" val="True" valType="bool" updates="None"/>\u000a    <Param name="Screen" val="1" valType="num" updates="None"/>\u000a  </Settings>\u000a  <Routines>\u000a    <Routine name="trial">\u000a      <TextComponent name="word">\u000a        <Param name="name" val="word" valType="code" updates="constant"/>\u000a        <Param name="color" val="$letterColor" valType="str" updates="set every repeat"/>\u000a        <Param name="text" val="$text" valType="str" updates="set every repeat"/>\u000a        <Param name="colorSpace" val="rgb" valType="str" updates="constant"/>\u000a        <Param name="pos" val="[0, 0]" valType="code" updates="constant"/>\u000a        <Param name="duration" val="" valType="code" updates="constant"/>\u000a        <Param name="letterHeight" val="0.2" valType="code" updates="constant"/>\u000a        <Param name="startTime" val="0.5" valType="code" updates="constant"/>\u000a        <Param name="ori" val="0" valType="code" updates="constant"/>\u000a        <Param name="units" val="window units" valType="str" updates="None"/>\u000a        <Param name="font" val="Arial" valType="str" updates="constant"/>\u000a      </TextComponent>\u000a      <KeyboardComponent name="resp">\u000a        <Param name="storeCorrect" val="True" valType="bool" updates="constant"/>\u000a        <Param name="name" val="resp" valType="code" updates="None"/>\u000a        <Param name="forceEndTrial" val="True" valType="bool" updates="constant"/>\u000a        <Param name="correctAns" val="$corrAns" valType="str" updates="constant"/>\u000a        <Param name="storeResponseTime" val="True" valType="bool" updates="constant"/>\u000a        <Param name="startTime" val="0.5" valType="code" updates="constant"/>\u000a        <Param name="allowedKeys" val="[&quot;left&quot;,&quot;down&quot;,&quot;right&quot;]" valType="str" updates="constant"/>\u000a        <Param name="duration" val="" valType="code" updates="constant"/>\u000a        <Param name="store" val="last key" valType="str" updates="constant"/>\u000a      </KeyboardComponent>\u000a    </Routine>\u000a    <Routine name="instruct">\u000a      <TextComponent name="instrText">\u000a        <Param name="name" val="instrText" valType="code" updates="constant"/>\u000a        <Param name="color" val="$[1, 1, 1]" valType="str" updates="constant"/>\u000a        <Param name="text" val="OK. Ready for the real thing?&#10;&#10;Remember, ignore the word itself; press:&#10;Left for red LETTERS&#10;Down for green LETTERS&#10;Right for blue LETTERS&#10;(Esc will quit)&#10;&#10;Press any key to continue" valType="str" updates="constant"/>\u000a        <Param name="colorSpace" val="rgb" valType="str" updates="constant"/>\u000a        <Param name="pos" val="[0, 0]" valType="code" updates="constant"/>\u000a        <Param name="duration" val="" valType="code" updates="constant"/>\u000a        <Param name="letterHeight" val="0.1" valType="code" updates="constant"/>\u000a        <Param name="startTime" val="0" valType="code" updates="constant"/>\u000a        <Param name="ori" val="0" valType="code" updates="constant"/>\u000a        <Param name="units" val="window units" valType="str" updates="None"/>\u000a        <Param name="font" val="Arial" valType="str" updates="constant"/>\u000a      </TextComponent>\u000a      <KeyboardComponent name="ready">\u000a        <Param name="storeCorrect" val="False" valType="bool" updates="constant"/>\u000a        <Param name="name" val="ready" valType="code" updates="None"/>\u000a        <Param name="forceEndTrial" val="True" valType="bool" updates="constant"/>\u000a        <Param name="correctAns" val="thisTrial.corrAns" valType="str" updates="constant"/>\u000a        <Param name="storeResponseTime" val="False" valType="bool" updates="constant"/>\u000a        <Param name="startTime" val="0" valType="code" updates="constant"/>\u000a        <Param name="allowedKeys" val="" valType="str" updates="constant"/>\u000a        <Param name="duration" val="" valType="code" updates="constant"/>\u000a        <Param name="store" val="nothing" valType="str" updates="constant"/>\u000a      </KeyboardComponent>\u000a    </Routine>\u000a    <Routine name="instructPractice">\u000a      <TextComponent name="instr1">\u000a        <Param name="name" val="instr1" valType="code" updates="constant"/>\u000a        <Param name="color" val="white" valType="str" updates="constant"/>\u000a        <Param name="text" val="Please press;&#10;Left for red LETTERS&#10;Down for green LETTERS&#10;Right for blue LETTERS&#10;(Esc will quit)&#10;&#10;Let's start with a few practice trials&#10;&#10;Press any key to continue" valType="str" updates="constant"/>\u000a        <Param name="colorSpace" val="rgb" valType="str" updates="constant"/>\u000a        <Param name="pos" val="[0, 0]" valType="code" updates="constant"/>\u000a        <Param name="duration" val="" valType="code" updates="constant"/>\u000a        <Param name="letterHeight" val="0.1" valType="code" updates="constant"/>\u000a        <Param name="startTime" val="0.0" valType="code" updates="constant"/>\u000a        <Param name="ori" val="0" valType="code" updates="constant"/>\u000a        <Param name="units" val="window units" valType="str" updates="None"/>\u000a        <Param name="font" val="Arial" valType="str" updates="constant"/>\u000a      </TextComponent>\u000a      <KeyboardComponent name="ready1">\u000a        <Param name="storeCorrect" val="False" valType="bool" updates="constant"/>\u000a        <Param name="name" val="ready1" valType="code" updates="None"/>\u000a        <Param name="forceEndTrial" val="True" valType="bool" updates="constant"/>\u000a        <Param name="correctAns" val="" valType="str" updates="constant"/>\u000a        <Param name="storeResponseTime" val="False" valType="bool" updates="constant"/>\u000a        <Param name="startTime" val="0.0" valType="code" updates="constant"/>\u000a        <Param name="allowedKeys" val="" valType="str" updates="constant"/>\u000a        <Param name="duration" val="" valType="code" updates="constant"/>\u000a        <Param name="store" val="nothing" valType="str" updates="constant"/>\u000a      </KeyboardComponent>\u000a    </Routine>\u000a    <Routine name="thanks">\u000a      <TextComponent name="thanksText">\u000a        <Param name="name" val="thanksText" valType="code" updates="constant"/>\u000a        <Param name="color" val="$[1, 1, 1]" valType="str" updates="constant"/>\u000a        <Param name="text" val="This is the end of the experiment.&#10;&#10;Thanks!" valType="str" updates="constant"/>\u000a        <Param name="colorSpace" val="rgb" valType="str" updates="constant"/>\u000a        <Param name="pos" val="[0, 0]" valType="code" updates="constant"/>\u000a        <Param name="duration" val="2.0" valType="code" updates="constant"/>\u000a        <Param name="letterHeight" val="0.2" valType="code" updates="constant"/>\u000a        <Param name="startTime" val="0.0" valType="code" updates="constant"/>\u000a        <Param name="ori" val="0" valType="code" updates="constant"/>\u000a        <Param name="units" val="window units" valType="str" updates="None"/>\u000a        <Param name="font" val="arial" valType="str" updates="constant"/>\u000a      </TextComponent>\u000a    </Routine>\u000a    <Routine name="feedback">\u000a      <CodeComponent name="message">\u000a        <Param name="Begin Experiment" val="#msg variable just needs some value at start&#10;msg=''" valType="code" updates="constant"/>\u000a        <Param name="name" val="message" valType="code" updates="None"/>\u000a        <Param name="Each Frame" val="" valType="code" updates="constant"/>\u000a        <Param name="Begin Routine" val="if resp.corr:#stored on last run routine&#10;  msg=&quot;Correct! RT=%.3f&quot; %(resp.rt)&#10;else:&#10;  msg=&quot;Oops! That was wrong&quot;" valType="code" updates="constant"/>\u000a        <Param name="End Routine" val="" valType="code" updates="constant"/>\u000a        <Param name="End Experiment" val="" valType="code" updates="constant"/>\u000a      </CodeComponent>\u000a      <TextComponent name="feedback">\u000a        <Param name="name" val="feedback" valType="code" updates="constant"/>\u000a        <Param name="color" val="$[1,1,1]" valType="str" updates="constant"/>\u000a        <Param name="text" val="$msg" valType="str" updates="set every repeat"/>\u000a        <Param name="colorSpace" val="rgb" valType="str" updates="constant"/>\u000a        <Param name="pos" val="[0, 0]" valType="code" updates="constant"/>\u000a        <Param name="duration" val="1.0" valType="code" updates="constant"/>\u000a        <Param name="letterHeight" val="0.1" valType="code" updates="constant"/>\u000a        <Param name="startTime" val="0.0" valType="code" updates="constant"/>\u000a        <Param name="ori" val="0" valType="code" updates="constant"/>\u000a        <Param name="units" val="window units" valType="str" updates="None"/>\u000a        <Param name="font" val="Arial" valType="str" updates="constant"/>\u000a      </TextComponent>\u000a    </Routine>\u000a  </Routines>\u000a  <Flow>\u000a    <Routine name="instructPractice"/>\u000a    <LoopInitiator loopType="TrialHandler" name="practice">\u000a      <Param name="endPoints" val="[0, 1]" valType="num" updates="None"/>\u000a      <Param name="name" val="practice" valType="code" updates="None"/>\u000a      <Param name="loopType" val="random" valType="str" updates="None"/>\u000a      <Param name="nReps" val="1" valType="num" updates="None"/>\u000a      <Param name="trialList" val="[{u'text': u'red', u'congruent': u'cong', u'corrAns': u'left', u'letterColor': u'red'}, {u'text': u'red', u'congruent': u'cong', u'corrAns': u'left', u'letterColor': u'red'}, {u'text': u'red', u'congruent': u'incong', u'corrAns': u'down', u'letterColor': u'green'}, {u'text': u'red', u'congruent': u'incong', u'corrAns': u'right', u'letterColor': u'blue'}, {u'text': u'green', u'congruent': u'incong', u'corrAns': u'left', u'letterColor': u'red'}, {u'text': u'green', u'congruent': u'cong', u'corrAns': u'down', u'letterColor': u'green'}, {u'text': u'green', u'congruent': u'cong', u'corrAns': u'down', u'letterColor': u'green'}, {u'text': u'green', u'congruent': u'incong', u'corrAns': u'right', u'letterColor': u'blue'}, {u'text': u'blue', u'congruent': u'incong', u'corrAns': u'left', u'letterColor': u'red'}, {u'text': u'blue', u'congruent': u'incong', u'corrAns': u'down', u'letterColor': u'green'}, {u'text': u'blue', u'congruent': u'cong', u'corrAns': u'right', u'letterColor': u'blue'}, {u'text': u'blue', u'congruent': u'cong', u'corrAns': u'right', u'letterColor': u'blue'}]" valType="str" updates="None"/>\u000a      <Param name="trialListFile" val="trialTypes.xlsx" valType="str" updates="None"/>\u000a    </LoopInitiator>\u000a    <Routine name="trial"/>\u000a    <Routine name="feedback"/>\u000a    <LoopTerminator name="practice"/>\u000a    <Routine name="instruct"/>\u000a    <LoopInitiator loopType="TrialHandler" name="trials">\u000a      <Param name="endPoints" val="[1, 2]" valType="num" updates="None"/>\u000a      <Param name="name" val="trials" valType="code" updates="None"/>\u000a      <Param name="loopType" val="random" valType="str" updates="None"/>\u000a      <Param name="nReps" val="5" valType="num" updates="None"/>\u000a      <Param name="trialList" val="[{u'text': u'red', u'congruent': u'cong', u'corrAns': u'left', u'letterColor': u'red'}, {u'text': u'red', u'congruent': u'cong', u'corrAns': u'left', u'letterColor': u'red'}, {u'text': u'red', u'congruent': u'incong', u'corrAns': u'down', u'letterColor': u'green'}, {u'text': u'red', u'congruent': u'incong', u'corrAns': u'right', u'letterColor': u'blue'}, {u'text': u'green', u'congruent': u'incong', u'corrAns': u'left', u'letterColor': u'red'}, {u'text': u'green', u'congruent': u'cong', u'corrAns': u'down', u'letterColor': u'green'}, {u'text': u'green', u'congruent': u'cong', u'corrAns': u'down', u'letterColor': u'green'}, {u'text': u'green', u'congruent': u'incong', u'corrAns': u'right', u'letterColor': u'blue'}, {u'text': u'blue', u'congruent': u'incong', u'corrAns': u'left', u'letterColor': u'red'}, {u'text': u'blue', u'congruent': u'incong', u'corrAns': u'down', u'letterColor': u'green'}, {u'text': u'blue', u'congruent': u'cong', u'corrAns': u'right', u'letterColor': u'blue'}, {u'text': u'blue', u'congruent': u'cong', u'corrAns': u'right', u'letterColor': u'blue'}]" valType="str" updates="None"/>\u000a      <Param name="trialListFile" val="trialTypes.xlsx" valType="str" updates="None"/>\u000a    </LoopInitiator>\u000a    <Routine name="trial"/>\u000a    <LoopTerminator name="trials"/>\u000a    <Routine name="thanks"/>\u000a  </Flow>\u000a</PsychoPy2experiment>\u000a
p4
sS'thisTrial'
p5
(lp6
sS'originPath'
p7
S'H:\\Lab1_Stroop\\stroop\\stroop.psyexp'
p8
sS'thisRepN'
p9
I5
sS'nTotal'
p10
I60
sS'extraInfo'
p11
(dp12
S'date'
p13
S'2011_Oct_06_1029'
p14
sS'expName'
p15
S'None'
p16
sS'session'
p17
V01
p18
sS'participant'
p19
Vlpyceb
p20
ssS'data'
p21
ccopy_reg
_reconstructor
p22
(cpsychopy.data
DataHandler
p23
c__builtin__
dict
p24
(dp25
S'ran'
p26
cnumpy.ma.core
_mareconstruct
p27
(cnumpy.ma.core
MaskedArray
p28
cnumpy
ndarray
p29
(I0
tp30
S'b'
tRp31
(I1
(I12
I5
tcnumpy
dtype
p32
(S'f4'
I0
I1
tRp33
(I3
S'<'
NNNI-1
I-1
I0
tbI00
S'\x00\x00\x80?\x00\x00\x80?\x00\x00\x80?\x00\x00\x80?\x00\x00\x80?\x00\x00\x80?\x00\x00\x80?\x00\x00\x80?\x00\x00\x80?\x00\x00\x80?\x00\x00\x80?\x00\x00\x80?\x00\x00\x80?\x00\x00\x80?\x00\x00\x80?\x00\x00\x80?\x00\x00\x80?\x00\x00\x80?\x00\x00\x80?\x00\x00\x80?\x00\x00\x80?\x00\x00\x80?\x00\x00\x80?\x00\x00\x80?\x00\x00\x80?\x00\x00\x80?\x00\x00\x80?\x00\x00\x80?\x00\x00\x80?\x00\x00\x80?\x00\x00\x80?\x00\x00\x80?\x00\x00\x80?\x00\x00\x80?\x00\x00\x80?\x00\x00\x80?\x00\x00\x80?\x00\x00\x80?\x00\x00\x80?\x00\x00\x80?\x00\x00\x80?\x00\x00\x80?\x00\x00\x80?\x00\x00\x80?\x00\x00\x80?\x00\x00\x80?\x00\x00\x80?\x00\x00\x80?\x00\x00\x80?\x00\x00\x80?\x00\x00\x80?\x00\x00\x80?\x00\x00\x80?\x00\x00\x80?\x00\x00\x80?\x00\x00\x80?\x00\x00\x80?\x00\x00\x80?\x00\x00\x80?\x00\x00\x80?'
S'\x00\x00\x00\x00\x00\x00\x00\x00\x00\x00\x00\x00\x00\x00\x00\x00\x00\x00\x00\x00\x00\x00\x00\x00\x00\x00\x00\x00\x00\x00\x00\x00\x00\x00\x00\x00\x00\x00\x00\x00\x00\x00\x00\x00\x00\x00\x00\x00\x00\x00\x00\x00\x00\x00\x00\x00\x00\x00\x00\x00'
NtbsS'resp.keys'
p34
cnumpy.core.multiarray
_reconstruct
p35
(g29
(I0
tS'b'
tRp36
(I1
(I12
I5
tg32
(S'O4'
I0
I1
tRp37
(I3
S'|'
NNNI-1
I-1
I63
tbI00
(lp38
S'left'
p39
aS'left'
p40
aS'left'
p41
aS'left'
p42
aS'left'
p43
aS'left'
p44
aS'left'
p45
aS'left'
p46
aS'left'
p47
aS'left'
p48
aS'down'
p49
aS'down'
p50
aS'down'
p51
aS'down'
p52
aS'down'
p53
aS'down'
p54
aS'left'
p55
aS'right'
p56
aS'left'
p57
aS'right'
p58
aS'left'
p59
aS'left'
p60
aS'left'
p61
aS'left'
p62
aS'down'
p63
aS'down'
p64
aS'down'
p65
aS'down'
p66
aS'down'
p67
aS'down'
p68
aS'down'
p69
aS'down'
p70
aS'left'
p71
aS'left'
p72
aS'down'
p73
aS'right'
p74
aS'right'
p75
aS'right'
p76
aS'right'
p77
aS'right'
p78
aS'left'
p79
aS'left'
p80
aS'left'
p81
aS'left'
p82
aS'left'
p83
aS'down'
p84
aS'down'
p85
aS'down'
p86
aS'down'
p87
aS'down'
p88
aS'right'
p89
aS'right'
p90
aS'right'
p91
aS'down'
p92
aS'right'
p93
aS'right'
p94
aS'right'
p95
aS'right'
p96
aS'right'
p97
aS'right'
p98
atbsS'resp.corr'
p99
g27
(g28
g29
g30
S'b'
tRp100
(I1
(I12
I5
tg33
I00
S'\x00\x00\x80?\x00\x00\x80?\x00\x00\x80?\x00\x00\x80?\x00\x00\x80?\x00\x00\x80?\x00\x00\x80?\x00\x00\x80?\x00\x00\x80?\x00\x00\x80?\x00\x00\x80?\x00\x00\x80?\x00\x00\x80?\x00\x00\x80?\x00\x00\x80?\x00\x00\x00\x00\x00\x00\x00\x00\x00\x00\x80?\x00\x00\x00\x00\x00\x00\x80?\x00\x00\x80?\x00\x00\x80?\x00\x00\x80?\x00\x00\x80?\x00\x00\x00\x00\x00\x00\x80?\x00\x00\x80?\x00\x00\x80?\x00\x00\x80?\x00\x00\x80?\x00\x00\x80?\x00\x00\x80?\x00\x00\x00\x00\x00\x00\x00\x00\x00\x00\x80?\x00\x00\x80?\x00\x00\x80?\x00\x00\x80?\x00\x00\x80?\x00\x00\x80?\x00\x00\x80?\x00\x00\x80?\x00\x00\x80?\x00\x00\x80?\x00\x00\x80?\x00\x00\x80?\x00\x00\x80?\x00\x00\x80?\x00\x00\x80?\x00\x00\x80?\x00\x00\x80?\x00\x00\x80?\x00\x00\x80?\x00\x00\x00\x00\x00\x00\x80?\x00\x00\x80?\x00\x00\x80?\x00\x00\x80?\x00\x00\x80?\x00\x00\x80?'
S'\x00\x00\x00\x00\x00\x00\x00\x00\x00\x00\x00\x00\x00\x00\x00\x00\x00\x00\x00\x00\x00\x00\x00\x00\x00\x00\x00\x00\x00\x00\x00\x00\x00\x00\x00\x00\x00\x00\x00\x00\x00\x00\x00\x00\x00\x00\x00\x00\x00\x00\x00\x00\x00\x00\x00\x00\x00\x00\x00\x00'
NtbsS'resp.rt'
p101
g27
(g28
g29
g30
S'b'
tRp102
(I1
(I12
I5
tg33
I00
S'S\xa87?\x81\xef\xe6>L|D?,w\xef>\xf2J"?\x8f6\x1e?\x801\x11?+2\x8d?$\x1b\r?.Q\xde>\tE\xcd>\xfb\xbe\x19?\x15\x03\xef>\xa1e"?^po?\x89Z\xde>m%^?\xc4b\x11?\xc1\x04\xf8>\xdc\x16\xef>\xd3r\x84?\xff\xbd\x19?[g\x82?\xca\xe5\xcc>j8@?\xa9\x8d\x04?\x8fJ\x00?^\x8e\x04?(\xd5\x08?T\xd1\x99?\n_\xde>\x07\xa7\x08?\xbdF\x00?\x85<o?\x1b|\x04?\x17\xf1;?\x96}D?\xafb\xe7>\x916@?\x7f\xfdw?vH\x00?\xc5\xc4\x04?~\xe9\x0c?B6\x1e?\xbc\x19\xc5>,o\xd5>:\xd8*?\x91\x90\x04?\xb1p\xd5>\x9ac\x11?8\xa4\x08?\x83\x05\xf8>i\xa3\x08?\x90\xde\xef>\x07\x1c\r?\x90F\x00?\xd8!\x1a?L\xa2\x08?\xb3\xc8\xbb>\xd9\x1b\r?'
S'\x00\x00\x00\x00\x00\x00\x00\x00\x00\x00\x00\x00\x00\x00\x00\x00\x00\x00\x00\x00\x00\x00\x00\x00\x00\x00\x00\x00\x00\x00\x00\x00\x00\x00\x00\x00\x00\x00\x00\x00\x00\x00\x00\x00\x00\x00\x00\x00\x00\x00\x00\x00\x00\x00\x00\x00\x00\x00\x00\x00'
NtbstRp103
(dp104
S'isNumeric'
p105
(dp106
g26
I01
sg34
I00
sg101
I01
sg99
I01
ssS'trials'
p107
g1
sS'dataTypes'
p108
(lp109
g26
ag34
ag99
ag101
asS'dataShape'
p110
(lp111
I12
aI5
asbsS'_warnUseOfNext'
p112
I01
sS'sequenceIndices'
p113
g35
(g29
(I0
tS'b'
tRp114
(I1
(I12
I5
tg32
(S'i4'
I0
I1
tRp115
(I3
S'<'
NNNI-1
I-1
I0
tbI01
S'\x05\x00\x00\x00\n\x00\x00\x00\x07\x00\x00\x00\x08\x00\x00\x00\t\x00\x00\x00\x0b\x00\x00\x00\x01\x00\x00\x00\x02\x00\x00\x00\x03\x00\x00\x00\x04\x00\x00\x00\x06\x00\x00\x00\x00\x00\x00\x00\x02\x00\x00\x00\x08\x00\x00\x00\x06\x00\x00\x00\x07\x00\x00\x00\x0b\x00\x00\x00\x01\x00\x00\x00\x00\x00\x00\x00\n\x00\x00\x00\x03\x00\x00\x00\x05\x00\x00\x00\t\x00\x00\x00\x04\x00\x00\x00\x06\x00\x00\x00\x03\x00\x00\x00\x00\x00\x00\x00\x04\x00\x00\x00\x05\x00\x00\x00\x07\x00\x00\x00\t\x00\x00\x00\x08\x00\x00\x00\x01\x00\x00\x00\x02\x00\x00\x00\n\x00\x00\x00\x0b\x00\x00\x00\x0b\x00\x00\x00\x05\x00\x00\x00\n\x00\x00\x00\x02\x00\x00\x00\t\x00\x00\x00\x03\x00\x00\x00\x04\x00\x00\x00\x08\x00\x00\x00\x07\x00\x00\x00\x00\x00\x00\x00\x01\x00\x00\x00\x06\x00\x00\x00\x01\x00\x00\x00\x05\x00\x00\x00\x07\x00\x00\x00\x0b\x00\x00\x00\x06\x00\x00\x00\t\x00\x00\x00\x00\x00\x00\x00\x08\x00\x00\x00\x04\x00\x00\x00\x02\x00\x00\x00\n\x00\x00\x00\x03\x00\x00\x00'
tbsS'finished'
p116
I01
sS'nReps'
p117
I5
sS'nRemaining'
p118
I-1
sS'trialList'
p119
(lp120
g22
(cpsychopy.data
TrialType
p121
g24
(dp122
Vtext
p123
Vred
p124
sVcongruent
p125
Vcong
p126
sVcorrAns
p127
Vleft
p128
sVletterColor
p129
g124
stRp130
ag22
(g121
g24
(dp131
g123
g124
sg125
g126
sg127
g128
sg129
g124
stRp132
ag22
(g121
g24
(dp133
g123
g124
sg125
Vincong
p134
sg127
Vdown
p135
sg129
Vgreen
p136
stRp137
ag22
(g121
g24
(dp138
g123
g124
sg125
g134
sg127
Vright
p139
sg129
Vblue
p140
stRp141
ag22
(g121
g24
(dp142
g123
g136
sg125
g134
sg127
g128
sg129
g124
stRp143
ag22
(g121
g24
(dp144
g123
g136
sg125
g126
sg127
g135
sg129
g136
stRp145
ag22
(g121
g24
(dp146
g123
g136
sg125
g126
sg127
g135
sg129
g136
stRp147
ag22
(g121
g24
(dp148
g123
g136
sg125
g134
sg127
g139
sg129
g140
stRp149
ag22
(g121
g24
(dp150
g123
g140
sg125
g134
sg127
g128
sg129
g124
stRp151
ag22
(g121
g24
(dp152
g123
g140
sg125
g134
sg127
g135
sg129
g136
stRp153
ag22
(g121
g24
(dp154
g123
g140
sg125
g126
sg127
g139
sg129
g140
stRp155
ag22
(g121
g24
(dp156
g123
g140
sg125
g126
sg127
g139
sg129
g140
stRp157
asS'seed'
p158
NsS'thisIndex'
p159
cnumpy.core.multiarray
scalar
p160
(g115
S'\x03\x00\x00\x00'
tRp161
sS'thisTrialN'
p162
I0
sS'method'
p163
S'random'
p164
sb.